
moisture_sensor.elf:     file format elf32-littlearm

Sections:
Idx Name          Size      VMA       LMA       File off  Algn
  0 .isr_vector   000000c0  08000000  08000000  00010000  2**0
                  CONTENTS, ALLOC, LOAD, READONLY, DATA
  1 .text         00001cdc  080000c0  080000c0  000100c0  2**2
                  CONTENTS, ALLOC, LOAD, READONLY, CODE
  2 .rodata       00000030  08001d9c  08001d9c  00011d9c  2**0
                  CONTENTS, ALLOC, LOAD, READONLY, DATA
  3 .ARM.extab    00000000  08001dcc  08001dcc  00020010  2**0
                  CONTENTS
  4 .ARM          00000000  08001dcc  08001dcc  00020010  2**0
                  CONTENTS
  5 .preinit_array 00000000  08001dcc  08001dcc  00020010  2**0
                  CONTENTS, ALLOC, LOAD, DATA
  6 .init_array   00000004  08001dcc  08001dcc  00011dcc  2**2
                  CONTENTS, ALLOC, LOAD, DATA
  7 .fini_array   00000004  08001dd0  08001dd0  00011dd0  2**2
                  CONTENTS, ALLOC, LOAD, DATA
  8 .data         00000010  20000000  08001dd4  00020000  2**2
                  CONTENTS, ALLOC, LOAD, DATA
  9 .bss          00000168  20000010  08001de4  00020010  2**2
                  ALLOC
 10 ._user_heap_stack 00000600  20000178  08001de4  00020178  2**0
                  ALLOC
 11 .ARM.attributes 00000028  00000000  00000000  00020010  2**0
                  CONTENTS, READONLY
 12 .comment      0000007b  00000000  00000000  00020038  2**0
                  CONTENTS, READONLY
 13 .debug_frame  00000094  00000000  00000000  000200b4  2**2
                  CONTENTS, READONLY, DEBUGGING

Disassembly of section .text:

080000c0 <__do_global_dtors_aux>:
 80000c0:	b510      	push	{r4, lr}
 80000c2:	4c06      	ldr	r4, [pc, #24]	; (80000dc <__do_global_dtors_aux+0x1c>)
 80000c4:	7823      	ldrb	r3, [r4, #0]
 80000c6:	2b00      	cmp	r3, #0
 80000c8:	d107      	bne.n	80000da <__do_global_dtors_aux+0x1a>
 80000ca:	4b05      	ldr	r3, [pc, #20]	; (80000e0 <__do_global_dtors_aux+0x20>)
 80000cc:	2b00      	cmp	r3, #0
 80000ce:	d002      	beq.n	80000d6 <__do_global_dtors_aux+0x16>
 80000d0:	4804      	ldr	r0, [pc, #16]	; (80000e4 <__do_global_dtors_aux+0x24>)
 80000d2:	e000      	b.n	80000d6 <__do_global_dtors_aux+0x16>
 80000d4:	bf00      	nop
 80000d6:	2301      	movs	r3, #1
 80000d8:	7023      	strb	r3, [r4, #0]
 80000da:	bd10      	pop	{r4, pc}
 80000dc:	20000010 	.word	0x20000010
 80000e0:	00000000 	.word	0x00000000
 80000e4:	08001d84 	.word	0x08001d84

080000e8 <frame_dummy>:
 80000e8:	4b04      	ldr	r3, [pc, #16]	; (80000fc <frame_dummy+0x14>)
 80000ea:	b510      	push	{r4, lr}
 80000ec:	2b00      	cmp	r3, #0
 80000ee:	d003      	beq.n	80000f8 <frame_dummy+0x10>
 80000f0:	4903      	ldr	r1, [pc, #12]	; (8000100 <frame_dummy+0x18>)
 80000f2:	4804      	ldr	r0, [pc, #16]	; (8000104 <frame_dummy+0x1c>)
 80000f4:	e000      	b.n	80000f8 <frame_dummy+0x10>
 80000f6:	bf00      	nop
 80000f8:	bd10      	pop	{r4, pc}
 80000fa:	46c0      	nop			; (mov r8, r8)
 80000fc:	00000000 	.word	0x00000000
 8000100:	20000014 	.word	0x20000014
 8000104:	08001d84 	.word	0x08001d84

08000108 <__gnu_thumb1_case_uqi>:
 8000108:	b402      	push	{r1}
 800010a:	4671      	mov	r1, lr
 800010c:	0849      	lsrs	r1, r1, #1
 800010e:	0049      	lsls	r1, r1, #1
 8000110:	5c09      	ldrb	r1, [r1, r0]
 8000112:	0049      	lsls	r1, r1, #1
 8000114:	448e      	add	lr, r1
 8000116:	bc02      	pop	{r1}
 8000118:	4770      	bx	lr
 800011a:	46c0      	nop			; (mov r8, r8)

0800011c <__udivsi3>:
 800011c:	2200      	movs	r2, #0
 800011e:	0843      	lsrs	r3, r0, #1
 8000120:	428b      	cmp	r3, r1
 8000122:	d374      	bcc.n	800020e <__udivsi3+0xf2>
 8000124:	0903      	lsrs	r3, r0, #4
 8000126:	428b      	cmp	r3, r1
 8000128:	d35f      	bcc.n	80001ea <__udivsi3+0xce>
 800012a:	0a03      	lsrs	r3, r0, #8
 800012c:	428b      	cmp	r3, r1
 800012e:	d344      	bcc.n	80001ba <__udivsi3+0x9e>
 8000130:	0b03      	lsrs	r3, r0, #12
 8000132:	428b      	cmp	r3, r1
 8000134:	d328      	bcc.n	8000188 <__udivsi3+0x6c>
 8000136:	0c03      	lsrs	r3, r0, #16
 8000138:	428b      	cmp	r3, r1
 800013a:	d30d      	bcc.n	8000158 <__udivsi3+0x3c>
 800013c:	22ff      	movs	r2, #255	; 0xff
 800013e:	0209      	lsls	r1, r1, #8
 8000140:	ba12      	rev	r2, r2
 8000142:	0c03      	lsrs	r3, r0, #16
 8000144:	428b      	cmp	r3, r1
 8000146:	d302      	bcc.n	800014e <__udivsi3+0x32>
 8000148:	1212      	asrs	r2, r2, #8
 800014a:	0209      	lsls	r1, r1, #8
 800014c:	d065      	beq.n	800021a <__udivsi3+0xfe>
 800014e:	0b03      	lsrs	r3, r0, #12
 8000150:	428b      	cmp	r3, r1
 8000152:	d319      	bcc.n	8000188 <__udivsi3+0x6c>
 8000154:	e000      	b.n	8000158 <__udivsi3+0x3c>
 8000156:	0a09      	lsrs	r1, r1, #8
 8000158:	0bc3      	lsrs	r3, r0, #15
 800015a:	428b      	cmp	r3, r1
 800015c:	d301      	bcc.n	8000162 <__udivsi3+0x46>
 800015e:	03cb      	lsls	r3, r1, #15
 8000160:	1ac0      	subs	r0, r0, r3
 8000162:	4152      	adcs	r2, r2
 8000164:	0b83      	lsrs	r3, r0, #14
 8000166:	428b      	cmp	r3, r1
 8000168:	d301      	bcc.n	800016e <__udivsi3+0x52>
 800016a:	038b      	lsls	r3, r1, #14
 800016c:	1ac0      	subs	r0, r0, r3
 800016e:	4152      	adcs	r2, r2
 8000170:	0b43      	lsrs	r3, r0, #13
 8000172:	428b      	cmp	r3, r1
 8000174:	d301      	bcc.n	800017a <__udivsi3+0x5e>
 8000176:	034b      	lsls	r3, r1, #13
 8000178:	1ac0      	subs	r0, r0, r3
 800017a:	4152      	adcs	r2, r2
 800017c:	0b03      	lsrs	r3, r0, #12
 800017e:	428b      	cmp	r3, r1
 8000180:	d301      	bcc.n	8000186 <__udivsi3+0x6a>
 8000182:	030b      	lsls	r3, r1, #12
 8000184:	1ac0      	subs	r0, r0, r3
 8000186:	4152      	adcs	r2, r2
 8000188:	0ac3      	lsrs	r3, r0, #11
 800018a:	428b      	cmp	r3, r1
 800018c:	d301      	bcc.n	8000192 <__udivsi3+0x76>
 800018e:	02cb      	lsls	r3, r1, #11
 8000190:	1ac0      	subs	r0, r0, r3
 8000192:	4152      	adcs	r2, r2
 8000194:	0a83      	lsrs	r3, r0, #10
 8000196:	428b      	cmp	r3, r1
 8000198:	d301      	bcc.n	800019e <__udivsi3+0x82>
 800019a:	028b      	lsls	r3, r1, #10
 800019c:	1ac0      	subs	r0, r0, r3
 800019e:	4152      	adcs	r2, r2
 80001a0:	0a43      	lsrs	r3, r0, #9
 80001a2:	428b      	cmp	r3, r1
 80001a4:	d301      	bcc.n	80001aa <__udivsi3+0x8e>
 80001a6:	024b      	lsls	r3, r1, #9
 80001a8:	1ac0      	subs	r0, r0, r3
 80001aa:	4152      	adcs	r2, r2
 80001ac:	0a03      	lsrs	r3, r0, #8
 80001ae:	428b      	cmp	r3, r1
 80001b0:	d301      	bcc.n	80001b6 <__udivsi3+0x9a>
 80001b2:	020b      	lsls	r3, r1, #8
 80001b4:	1ac0      	subs	r0, r0, r3
 80001b6:	4152      	adcs	r2, r2
 80001b8:	d2cd      	bcs.n	8000156 <__udivsi3+0x3a>
 80001ba:	09c3      	lsrs	r3, r0, #7
 80001bc:	428b      	cmp	r3, r1
 80001be:	d301      	bcc.n	80001c4 <__udivsi3+0xa8>
 80001c0:	01cb      	lsls	r3, r1, #7
 80001c2:	1ac0      	subs	r0, r0, r3
 80001c4:	4152      	adcs	r2, r2
 80001c6:	0983      	lsrs	r3, r0, #6
 80001c8:	428b      	cmp	r3, r1
 80001ca:	d301      	bcc.n	80001d0 <__udivsi3+0xb4>
 80001cc:	018b      	lsls	r3, r1, #6
 80001ce:	1ac0      	subs	r0, r0, r3
 80001d0:	4152      	adcs	r2, r2
 80001d2:	0943      	lsrs	r3, r0, #5
 80001d4:	428b      	cmp	r3, r1
 80001d6:	d301      	bcc.n	80001dc <__udivsi3+0xc0>
 80001d8:	014b      	lsls	r3, r1, #5
 80001da:	1ac0      	subs	r0, r0, r3
 80001dc:	4152      	adcs	r2, r2
 80001de:	0903      	lsrs	r3, r0, #4
 80001e0:	428b      	cmp	r3, r1
 80001e2:	d301      	bcc.n	80001e8 <__udivsi3+0xcc>
 80001e4:	010b      	lsls	r3, r1, #4
 80001e6:	1ac0      	subs	r0, r0, r3
 80001e8:	4152      	adcs	r2, r2
 80001ea:	08c3      	lsrs	r3, r0, #3
 80001ec:	428b      	cmp	r3, r1
 80001ee:	d301      	bcc.n	80001f4 <__udivsi3+0xd8>
 80001f0:	00cb      	lsls	r3, r1, #3
 80001f2:	1ac0      	subs	r0, r0, r3
 80001f4:	4152      	adcs	r2, r2
 80001f6:	0883      	lsrs	r3, r0, #2
 80001f8:	428b      	cmp	r3, r1
 80001fa:	d301      	bcc.n	8000200 <__udivsi3+0xe4>
 80001fc:	008b      	lsls	r3, r1, #2
 80001fe:	1ac0      	subs	r0, r0, r3
 8000200:	4152      	adcs	r2, r2
 8000202:	0843      	lsrs	r3, r0, #1
 8000204:	428b      	cmp	r3, r1
 8000206:	d301      	bcc.n	800020c <__udivsi3+0xf0>
 8000208:	004b      	lsls	r3, r1, #1
 800020a:	1ac0      	subs	r0, r0, r3
 800020c:	4152      	adcs	r2, r2
 800020e:	1a41      	subs	r1, r0, r1
 8000210:	d200      	bcs.n	8000214 <__udivsi3+0xf8>
 8000212:	4601      	mov	r1, r0
 8000214:	4152      	adcs	r2, r2
 8000216:	4610      	mov	r0, r2
 8000218:	4770      	bx	lr
 800021a:	e7ff      	b.n	800021c <__udivsi3+0x100>
 800021c:	b501      	push	{r0, lr}
 800021e:	2000      	movs	r0, #0
 8000220:	f000 f806 	bl	8000230 <__aeabi_idiv0>
 8000224:	bd02      	pop	{r1, pc}
 8000226:	46c0      	nop			; (mov r8, r8)

08000228 <__aeabi_uidivmod>:
 8000228:	2900      	cmp	r1, #0
 800022a:	d0f7      	beq.n	800021c <__udivsi3+0x100>
 800022c:	e776      	b.n	800011c <__udivsi3>
 800022e:	4770      	bx	lr

08000230 <__aeabi_idiv0>:
 8000230:	4770      	bx	lr
 8000232:	46c0      	nop			; (mov r8, r8)

08000234 <SystemClock_Config>:
 8000234:	b510      	push	{r4, lr}
 8000236:	2410      	movs	r4, #16
 8000238:	b090      	sub	sp, #64	; 0x40
 800023a:	222c      	movs	r2, #44	; 0x2c
 800023c:	2100      	movs	r1, #0
 800023e:	a805      	add	r0, sp, #20
 8000240:	f001 fd97 	bl	8001d72 <memset>
 8000244:	0022      	movs	r2, r4
 8000246:	2100      	movs	r1, #0
 8000248:	4668      	mov	r0, sp
 800024a:	f001 fd92 	bl	8001d72 <memset>
 800024e:	2312      	movs	r3, #18
 8000250:	a804      	add	r0, sp, #16
 8000252:	9304      	str	r3, [sp, #16]
 8000254:	3b11      	subs	r3, #17
 8000256:	9307      	str	r3, [sp, #28]
 8000258:	9309      	str	r3, [sp, #36]	; 0x24
 800025a:	9408      	str	r4, [sp, #32]
 800025c:	940a      	str	r4, [sp, #40]	; 0x28
 800025e:	f000 fee7 	bl	8001030 <HAL_RCC_OscConfig>
 8000262:	2100      	movs	r1, #0
 8000264:	2307      	movs	r3, #7
 8000266:	4668      	mov	r0, sp
 8000268:	9300      	str	r3, [sp, #0]
 800026a:	9101      	str	r1, [sp, #4]
 800026c:	9102      	str	r1, [sp, #8]
 800026e:	9103      	str	r1, [sp, #12]
 8000270:	f001 f912 	bl	8001498 <HAL_RCC_ClockConfig>
 8000274:	b010      	add	sp, #64	; 0x40
 8000276:	bd10      	pop	{r4, pc}

08000278 <main>:
 8000278:	b5f0      	push	{r4, r5, r6, r7, lr}
 800027a:	b095      	sub	sp, #84	; 0x54
 800027c:	f000 fa9e 	bl	80007bc <HAL_Init>
 8000280:	f7ff ffd8 	bl	8000234 <SystemClock_Config>
 8000284:	2080      	movs	r0, #128	; 0x80
 8000286:	4b8a      	ldr	r3, [pc, #552]	; (80004b0 <main+0x238>)
 8000288:	0280      	lsls	r0, r0, #10
 800028a:	6959      	ldr	r1, [r3, #20]
 800028c:	2400      	movs	r4, #0
 800028e:	4301      	orrs	r1, r0
 8000290:	6159      	str	r1, [r3, #20]
 8000292:	695a      	ldr	r2, [r3, #20]
 8000294:	2707      	movs	r7, #7
 8000296:	4002      	ands	r2, r0
 8000298:	2080      	movs	r0, #128	; 0x80
 800029a:	9201      	str	r2, [sp, #4]
 800029c:	9a01      	ldr	r2, [sp, #4]
 800029e:	6959      	ldr	r1, [r3, #20]
 80002a0:	02c0      	lsls	r0, r0, #11
 80002a2:	4301      	orrs	r1, r0
 80002a4:	6159      	str	r1, [r3, #20]
 80002a6:	2101      	movs	r1, #1
 80002a8:	695a      	ldr	r2, [r3, #20]
 80002aa:	ad0c      	add	r5, sp, #48	; 0x30
 80002ac:	4002      	ands	r2, r0
 80002ae:	9202      	str	r2, [sp, #8]
 80002b0:	9a02      	ldr	r2, [sp, #8]
 80002b2:	695a      	ldr	r2, [r3, #20]
 80002b4:	2009      	movs	r0, #9
 80002b6:	430a      	orrs	r2, r1
 80002b8:	615a      	str	r2, [r3, #20]
 80002ba:	2200      	movs	r2, #0
 80002bc:	695b      	ldr	r3, [r3, #20]
 80002be:	2660      	movs	r6, #96	; 0x60
 80002c0:	400b      	ands	r3, r1
 80002c2:	9300      	str	r3, [sp, #0]
 80002c4:	0011      	movs	r1, r2
 80002c6:	9b00      	ldr	r3, [sp, #0]
 80002c8:	f000 fcf6 	bl	8000cb8 <HAL_NVIC_SetPriority>
 80002cc:	2009      	movs	r0, #9
 80002ce:	f000 fd1d 	bl	8000d0c <HAL_NVIC_EnableIRQ>
 80002d2:	221c      	movs	r2, #28
 80002d4:	2100      	movs	r1, #0
 80002d6:	a805      	add	r0, sp, #20
 80002d8:	f001 fd4b 	bl	8001d72 <memset>
 80002dc:	2220      	movs	r2, #32
 80002de:	2100      	movs	r1, #0
 80002e0:	0028      	movs	r0, r5
 80002e2:	f001 fd46 	bl	8001d72 <memset>
 80002e6:	4873      	ldr	r0, [pc, #460]	; (80004b4 <main+0x23c>)
 80002e8:	4b73      	ldr	r3, [pc, #460]	; (80004b8 <main+0x240>)
 80002ea:	60c7      	str	r7, [r0, #12]
 80002ec:	6003      	str	r3, [r0, #0]
 80002ee:	6044      	str	r4, [r0, #4]
 80002f0:	6084      	str	r4, [r0, #8]
 80002f2:	6104      	str	r4, [r0, #16]
 80002f4:	6144      	str	r4, [r0, #20]
 80002f6:	6184      	str	r4, [r0, #24]
 80002f8:	f001 fafa 	bl	80018f0 <HAL_TIM_Base_Init>
 80002fc:	486d      	ldr	r0, [pc, #436]	; (80004b4 <main+0x23c>)
 80002fe:	f001 fb12 	bl	8001926 <HAL_TIM_PWM_Init>
 8000302:	2303      	movs	r3, #3
 8000304:	9306      	str	r3, [sp, #24]
 8000306:	ab05      	add	r3, sp, #20
 8000308:	0022      	movs	r2, r4
 800030a:	0019      	movs	r1, r3
 800030c:	4869      	ldr	r0, [pc, #420]	; (80004b4 <main+0x23c>)
 800030e:	9605      	str	r6, [sp, #20]
 8000310:	9407      	str	r4, [sp, #28]
 8000312:	9408      	str	r4, [sp, #32]
 8000314:	9409      	str	r4, [sp, #36]	; 0x24
 8000316:	940a      	str	r4, [sp, #40]	; 0x28
 8000318:	940b      	str	r4, [sp, #44]	; 0x2c
 800031a:	f001 fb5b 	bl	80019d4 <HAL_TIM_PWM_ConfigChannel>
 800031e:	2380      	movs	r3, #128	; 0x80
 8000320:	0029      	movs	r1, r5
 8000322:	019b      	lsls	r3, r3, #6
 8000324:	4863      	ldr	r0, [pc, #396]	; (80004b4 <main+0x23c>)
 8000326:	616b      	str	r3, [r5, #20]
 8000328:	606c      	str	r4, [r5, #4]
 800032a:	60ac      	str	r4, [r5, #8]
 800032c:	60ec      	str	r4, [r5, #12]
 800032e:	612c      	str	r4, [r5, #16]
 8000330:	61ec      	str	r4, [r5, #28]
 8000332:	940c      	str	r4, [sp, #48]	; 0x30
 8000334:	f001 fcbc 	bl	8001cb0 <HAL_TIMEx_ConfigBreakDeadTime>
 8000338:	485e      	ldr	r0, [pc, #376]	; (80004b4 <main+0x23c>)
 800033a:	f000 f981 	bl	8000640 <HAL_TIM_MspPostInit>
 800033e:	2210      	movs	r2, #16
 8000340:	0021      	movs	r1, r4
 8000342:	a805      	add	r0, sp, #20
 8000344:	f001 fd15 	bl	8001d72 <memset>
 8000348:	2208      	movs	r2, #8
 800034a:	0021      	movs	r1, r4
 800034c:	a803      	add	r0, sp, #12
 800034e:	f001 fd10 	bl	8001d72 <memset>
 8000352:	221c      	movs	r2, #28
 8000354:	0021      	movs	r1, r4
 8000356:	0028      	movs	r0, r5
 8000358:	f001 fd0b 	bl	8001d72 <memset>
 800035c:	4b57      	ldr	r3, [pc, #348]	; (80004bc <main+0x244>)
 800035e:	4858      	ldr	r0, [pc, #352]	; (80004c0 <main+0x248>)
 8000360:	605f      	str	r7, [r3, #4]
 8000362:	6018      	str	r0, [r3, #0]
 8000364:	0018      	movs	r0, r3
 8000366:	609c      	str	r4, [r3, #8]
 8000368:	4b56      	ldr	r3, [pc, #344]	; (80004c4 <main+0x24c>)
 800036a:	6104      	str	r4, [r0, #16]
 800036c:	60c3      	str	r3, [r0, #12]
 800036e:	6184      	str	r4, [r0, #24]
 8000370:	f001 fabe 	bl	80018f0 <HAL_TIM_Base_Init>
 8000374:	2380      	movs	r3, #128	; 0x80
 8000376:	a805      	add	r0, sp, #20
 8000378:	015b      	lsls	r3, r3, #5
 800037a:	0001      	movs	r1, r0
 800037c:	484f      	ldr	r0, [pc, #316]	; (80004bc <main+0x244>)
 800037e:	9305      	str	r3, [sp, #20]
 8000380:	f001 fb9e 	bl	8001ac0 <HAL_TIM_ConfigClockSource>
 8000384:	484d      	ldr	r0, [pc, #308]	; (80004bc <main+0x244>)
 8000386:	f001 face 	bl	8001926 <HAL_TIM_PWM_Init>
 800038a:	a803      	add	r0, sp, #12
 800038c:	0001      	movs	r1, r0
 800038e:	484b      	ldr	r0, [pc, #300]	; (80004bc <main+0x244>)
 8000390:	9403      	str	r4, [sp, #12]
 8000392:	9404      	str	r4, [sp, #16]
 8000394:	f001 fc62 	bl	8001c5c <HAL_TIMEx_MasterConfigSynchronization>
 8000398:	0029      	movs	r1, r5
 800039a:	2204      	movs	r2, #4
 800039c:	4847      	ldr	r0, [pc, #284]	; (80004bc <main+0x244>)
 800039e:	960c      	str	r6, [sp, #48]	; 0x30
 80003a0:	606c      	str	r4, [r5, #4]
 80003a2:	60ac      	str	r4, [r5, #8]
 80003a4:	612c      	str	r4, [r5, #16]
 80003a6:	f001 fb15 	bl	80019d4 <HAL_TIM_PWM_ConfigChannel>
 80003aa:	0029      	movs	r1, r5
 80003ac:	220c      	movs	r2, #12
 80003ae:	4843      	ldr	r0, [pc, #268]	; (80004bc <main+0x244>)
 80003b0:	f001 fb10 	bl	80019d4 <HAL_TIM_PWM_ConfigChannel>
 80003b4:	4841      	ldr	r0, [pc, #260]	; (80004bc <main+0x244>)
 80003b6:	f000 f943 	bl	8000640 <HAL_TIM_MspPostInit>
 80003ba:	220c      	movs	r2, #12
 80003bc:	0021      	movs	r1, r4
 80003be:	0028      	movs	r0, r5
 80003c0:	f001 fcd7 	bl	8001d72 <memset>
 80003c4:	4e40      	ldr	r6, [pc, #256]	; (80004c8 <main+0x250>)
 80003c6:	4b41      	ldr	r3, [pc, #260]	; (80004cc <main+0x254>)
 80003c8:	2201      	movs	r2, #1
 80003ca:	6033      	str	r3, [r6, #0]
 80003cc:	2380      	movs	r3, #128	; 0x80
 80003ce:	2104      	movs	r1, #4
 80003d0:	00db      	lsls	r3, r3, #3
 80003d2:	6233      	str	r3, [r6, #32]
 80003d4:	0030      	movs	r0, r6
 80003d6:	1d73      	adds	r3, r6, #5
 80003d8:	6132      	str	r2, [r6, #16]
 80003da:	77da      	strb	r2, [r3, #31]
 80003dc:	62b2      	str	r2, [r6, #40]	; 0x28
 80003de:	6171      	str	r1, [r6, #20]
 80003e0:	6074      	str	r4, [r6, #4]
 80003e2:	60b4      	str	r4, [r6, #8]
 80003e4:	60f4      	str	r4, [r6, #12]
 80003e6:	7634      	strb	r4, [r6, #24]
 80003e8:	7674      	strb	r4, [r6, #25]
 80003ea:	76b4      	strb	r4, [r6, #26]
 80003ec:	76f4      	strb	r4, [r6, #27]
 80003ee:	61f4      	str	r4, [r6, #28]
 80003f0:	f000 fa52 	bl	8000898 <HAL_ADC_Init>
 80003f4:	2380      	movs	r3, #128	; 0x80
 80003f6:	0029      	movs	r1, r5
 80003f8:	015b      	lsls	r3, r3, #5
 80003fa:	0030      	movs	r0, r6
 80003fc:	606b      	str	r3, [r5, #4]
 80003fe:	60af      	str	r7, [r5, #8]
 8000400:	940c      	str	r4, [sp, #48]	; 0x30
 8000402:	f000 fb87 	bl	8000b14 <HAL_ADC_ConfigChannel>
 8000406:	2210      	movs	r2, #16
 8000408:	0021      	movs	r1, r4
 800040a:	0028      	movs	r0, r5
 800040c:	f001 fcb1 	bl	8001d72 <memset>
 8000410:	2208      	movs	r2, #8
 8000412:	0021      	movs	r1, r4
 8000414:	a805      	add	r0, sp, #20
 8000416:	f001 fcac 	bl	8001d72 <memset>
 800041a:	4f2d      	ldr	r7, [pc, #180]	; (80004d0 <main+0x258>)
 800041c:	4a29      	ldr	r2, [pc, #164]	; (80004c4 <main+0x24c>)
 800041e:	4b2d      	ldr	r3, [pc, #180]	; (80004d4 <main+0x25c>)
 8000420:	492d      	ldr	r1, [pc, #180]	; (80004d8 <main+0x260>)
 8000422:	0038      	movs	r0, r7
 8000424:	60fa      	str	r2, [r7, #12]
 8000426:	603b      	str	r3, [r7, #0]
 8000428:	6079      	str	r1, [r7, #4]
 800042a:	60bc      	str	r4, [r7, #8]
 800042c:	613c      	str	r4, [r7, #16]
 800042e:	617c      	str	r4, [r7, #20]
 8000430:	61bc      	str	r4, [r7, #24]
 8000432:	f001 fa5d 	bl	80018f0 <HAL_TIM_Base_Init>
 8000436:	2380      	movs	r3, #128	; 0x80
 8000438:	0029      	movs	r1, r5
 800043a:	015b      	lsls	r3, r3, #5
 800043c:	0038      	movs	r0, r7
 800043e:	930c      	str	r3, [sp, #48]	; 0x30
 8000440:	f001 fb3e 	bl	8001ac0 <HAL_TIM_ConfigClockSource>
 8000444:	2320      	movs	r3, #32
 8000446:	a905      	add	r1, sp, #20
 8000448:	0038      	movs	r0, r7
 800044a:	9305      	str	r3, [sp, #20]
 800044c:	9406      	str	r4, [sp, #24]
 800044e:	f001 fc05 	bl	8001c5c <HAL_TIMEx_MasterConfigSynchronization>
 8000452:	0021      	movs	r1, r4
 8000454:	4817      	ldr	r0, [pc, #92]	; (80004b4 <main+0x23c>)
 8000456:	f001 fbfd 	bl	8001c54 <HAL_TIM_PWM_Start>
 800045a:	2104      	movs	r1, #4
 800045c:	4817      	ldr	r0, [pc, #92]	; (80004bc <main+0x244>)
 800045e:	f001 fbf9 	bl	8001c54 <HAL_TIM_PWM_Start>
 8000462:	210c      	movs	r1, #12
 8000464:	4815      	ldr	r0, [pc, #84]	; (80004bc <main+0x244>)
 8000466:	f001 fbf5 	bl	8001c54 <HAL_TIM_PWM_Start>
 800046a:	0030      	movs	r0, r6
 800046c:	f000 fbd0 	bl	8000c10 <HAL_ADCEx_Calibration_Start>
 8000470:	0029      	movs	r1, r5
 8000472:	2201      	movs	r2, #1
 8000474:	0030      	movs	r0, r6
 8000476:	f000 fab5 	bl	80009e4 <HAL_ADC_Start_DMA>
 800047a:	0038      	movs	r0, r7
 800047c:	f001 f940 	bl	8001700 <HAL_TIM_Base_Start_IT>
 8000480:	882a      	ldrh	r2, [r5, #0]
 8000482:	25d9      	movs	r5, #217	; 0xd9
 8000484:	4b15      	ldr	r3, [pc, #84]	; (80004dc <main+0x264>)
 8000486:	480e      	ldr	r0, [pc, #56]	; (80004c0 <main+0x248>)
 8000488:	781e      	ldrb	r6, [r3, #0]
 800048a:	00ed      	lsls	r5, r5, #3
 800048c:	4b12      	ldr	r3, [pc, #72]	; (80004d8 <main+0x260>)
 800048e:	4914      	ldr	r1, [pc, #80]	; (80004e0 <main+0x268>)
 8000490:	42a6      	cmp	r6, r4
 8000492:	d100      	bne.n	8000496 <main+0x21e>
 8000494:	e7fe      	b.n	8000494 <main+0x21c>
 8000496:	42aa      	cmp	r2, r5
 8000498:	d904      	bls.n	80004a4 <main+0x22c>
 800049a:	4a09      	ldr	r2, [pc, #36]	; (80004c0 <main+0x248>)
 800049c:	4909      	ldr	r1, [pc, #36]	; (80004c4 <main+0x24c>)
 800049e:	6411      	str	r1, [r2, #64]	; 0x40
 80004a0:	6383      	str	r3, [r0, #56]	; 0x38
 80004a2:	e7f7      	b.n	8000494 <main+0x21c>
 80004a4:	428a      	cmp	r2, r1
 80004a6:	d8fc      	bhi.n	80004a2 <main+0x22a>
 80004a8:	4b05      	ldr	r3, [pc, #20]	; (80004c0 <main+0x248>)
 80004aa:	641c      	str	r4, [r3, #64]	; 0x40
 80004ac:	639c      	str	r4, [r3, #56]	; 0x38
 80004ae:	e7f8      	b.n	80004a2 <main+0x22a>
 80004b0:	40021000 	.word	0x40021000
 80004b4:	20000134 	.word	0x20000134
 80004b8:	40014400 	.word	0x40014400
 80004bc:	20000030 	.word	0x20000030
 80004c0:	40000400 	.word	0x40000400
 80004c4:	000003e7 	.word	0x000003e7
 80004c8:	200000f4 	.word	0x200000f4
 80004cc:	40012400 	.word	0x40012400
 80004d0:	20000070 	.word	0x20000070
 80004d4:	40012c00 	.word	0x40012c00
 80004d8:	0000031f 	.word	0x0000031f
 80004dc:	20000000 	.word	0x20000000
 80004e0:	000003e1 	.word	0x000003e1

080004e4 <HAL_TIM_PeriodElapsedCallback>:
 80004e4:	4b03      	ldr	r3, [pc, #12]	; (80004f4 <HAL_TIM_PeriodElapsedCallback+0x10>)
 80004e6:	6802      	ldr	r2, [r0, #0]
 80004e8:	429a      	cmp	r2, r3
 80004ea:	d102      	bne.n	80004f2 <HAL_TIM_PeriodElapsedCallback+0xe>
 80004ec:	22ff      	movs	r2, #255	; 0xff
 80004ee:	4b02      	ldr	r3, [pc, #8]	; (80004f8 <HAL_TIM_PeriodElapsedCallback+0x14>)
 80004f0:	701a      	strb	r2, [r3, #0]
 80004f2:	4770      	bx	lr
 80004f4:	40012c00 	.word	0x40012c00
 80004f8:	20000000 	.word	0x20000000

080004fc <Error_Handler>:
 80004fc:	4770      	bx	lr
	...

08000500 <HAL_MspInit>:
 8000500:	2001      	movs	r0, #1
 8000502:	4b0a      	ldr	r3, [pc, #40]	; (800052c <HAL_MspInit+0x2c>)
 8000504:	b082      	sub	sp, #8
 8000506:	6999      	ldr	r1, [r3, #24]
 8000508:	4301      	orrs	r1, r0
 800050a:	6199      	str	r1, [r3, #24]
 800050c:	2180      	movs	r1, #128	; 0x80
 800050e:	699a      	ldr	r2, [r3, #24]
 8000510:	0549      	lsls	r1, r1, #21
 8000512:	4002      	ands	r2, r0
 8000514:	9200      	str	r2, [sp, #0]
 8000516:	9a00      	ldr	r2, [sp, #0]
 8000518:	69da      	ldr	r2, [r3, #28]
 800051a:	430a      	orrs	r2, r1
 800051c:	61da      	str	r2, [r3, #28]
 800051e:	69db      	ldr	r3, [r3, #28]
 8000520:	400b      	ands	r3, r1
 8000522:	9301      	str	r3, [sp, #4]
 8000524:	9b01      	ldr	r3, [sp, #4]
 8000526:	b002      	add	sp, #8
 8000528:	4770      	bx	lr
 800052a:	46c0      	nop			; (mov r8, r8)
 800052c:	40021000 	.word	0x40021000

08000530 <HAL_ADC_MspInit>:
 8000530:	b530      	push	{r4, r5, lr}
 8000532:	0005      	movs	r5, r0
 8000534:	b089      	sub	sp, #36	; 0x24
 8000536:	2214      	movs	r2, #20
 8000538:	2100      	movs	r1, #0
 800053a:	a803      	add	r0, sp, #12
 800053c:	f001 fc19 	bl	8001d72 <memset>
 8000540:	4b1d      	ldr	r3, [pc, #116]	; (80005b8 <HAL_ADC_MspInit+0x88>)
 8000542:	682a      	ldr	r2, [r5, #0]
 8000544:	429a      	cmp	r2, r3
 8000546:	d134      	bne.n	80005b2 <HAL_ADC_MspInit+0x82>
 8000548:	2080      	movs	r0, #128	; 0x80
 800054a:	4b1c      	ldr	r3, [pc, #112]	; (80005bc <HAL_ADC_MspInit+0x8c>)
 800054c:	0080      	lsls	r0, r0, #2
 800054e:	6999      	ldr	r1, [r3, #24]
 8000550:	4301      	orrs	r1, r0
 8000552:	6199      	str	r1, [r3, #24]
 8000554:	2180      	movs	r1, #128	; 0x80
 8000556:	699a      	ldr	r2, [r3, #24]
 8000558:	0289      	lsls	r1, r1, #10
 800055a:	4002      	ands	r2, r0
 800055c:	9201      	str	r2, [sp, #4]
 800055e:	9a01      	ldr	r2, [sp, #4]
 8000560:	695a      	ldr	r2, [r3, #20]
 8000562:	2090      	movs	r0, #144	; 0x90
 8000564:	430a      	orrs	r2, r1
 8000566:	615a      	str	r2, [r3, #20]
 8000568:	695b      	ldr	r3, [r3, #20]
 800056a:	05c0      	lsls	r0, r0, #23
 800056c:	400b      	ands	r3, r1
 800056e:	9302      	str	r3, [sp, #8]
 8000570:	9b02      	ldr	r3, [sp, #8]
 8000572:	2301      	movs	r3, #1
 8000574:	a903      	add	r1, sp, #12
 8000576:	9303      	str	r3, [sp, #12]
 8000578:	3302      	adds	r3, #2
 800057a:	9304      	str	r3, [sp, #16]
 800057c:	f000 fca4 	bl	8000ec8 <HAL_GPIO_Init>
 8000580:	2280      	movs	r2, #128	; 0x80
 8000582:	4c0f      	ldr	r4, [pc, #60]	; (80005c0 <HAL_ADC_MspInit+0x90>)
 8000584:	4b0f      	ldr	r3, [pc, #60]	; (80005c4 <HAL_ADC_MspInit+0x94>)
 8000586:	60e2      	str	r2, [r4, #12]
 8000588:	1892      	adds	r2, r2, r2
 800058a:	6122      	str	r2, [r4, #16]
 800058c:	2280      	movs	r2, #128	; 0x80
 800058e:	00d2      	lsls	r2, r2, #3
 8000590:	6023      	str	r3, [r4, #0]
 8000592:	6162      	str	r2, [r4, #20]
 8000594:	2300      	movs	r3, #0
 8000596:	2220      	movs	r2, #32
 8000598:	0020      	movs	r0, r4
 800059a:	6063      	str	r3, [r4, #4]
 800059c:	60a3      	str	r3, [r4, #8]
 800059e:	61a2      	str	r2, [r4, #24]
 80005a0:	61e3      	str	r3, [r4, #28]
 80005a2:	f000 fbd9 	bl	8000d58 <HAL_DMA_Init>
 80005a6:	2800      	cmp	r0, #0
 80005a8:	d001      	beq.n	80005ae <HAL_ADC_MspInit+0x7e>
 80005aa:	f7ff ffa7 	bl	80004fc <Error_Handler>
 80005ae:	632c      	str	r4, [r5, #48]	; 0x30
 80005b0:	6265      	str	r5, [r4, #36]	; 0x24
 80005b2:	b009      	add	sp, #36	; 0x24
 80005b4:	bd30      	pop	{r4, r5, pc}
 80005b6:	46c0      	nop			; (mov r8, r8)
 80005b8:	40012400 	.word	0x40012400
 80005bc:	40021000 	.word	0x40021000
 80005c0:	200000b0 	.word	0x200000b0
 80005c4:	40020008 	.word	0x40020008

080005c8 <HAL_TIM_Base_MspInit>:
 80005c8:	b51f      	push	{r0, r1, r2, r3, r4, lr}
 80005ca:	6803      	ldr	r3, [r0, #0]
 80005cc:	4a18      	ldr	r2, [pc, #96]	; (8000630 <HAL_TIM_Base_MspInit+0x68>)
 80005ce:	4293      	cmp	r3, r2
 80005d0:	d113      	bne.n	80005fa <HAL_TIM_Base_MspInit+0x32>
 80005d2:	2080      	movs	r0, #128	; 0x80
 80005d4:	4a17      	ldr	r2, [pc, #92]	; (8000634 <HAL_TIM_Base_MspInit+0x6c>)
 80005d6:	0100      	lsls	r0, r0, #4
 80005d8:	6991      	ldr	r1, [r2, #24]
 80005da:	4301      	orrs	r1, r0
 80005dc:	6191      	str	r1, [r2, #24]
 80005de:	6993      	ldr	r3, [r2, #24]
 80005e0:	2200      	movs	r2, #0
 80005e2:	4003      	ands	r3, r0
 80005e4:	9301      	str	r3, [sp, #4]
 80005e6:	200d      	movs	r0, #13
 80005e8:	0011      	movs	r1, r2
 80005ea:	9b01      	ldr	r3, [sp, #4]
 80005ec:	f000 fb64 	bl	8000cb8 <HAL_NVIC_SetPriority>
 80005f0:	200d      	movs	r0, #13
 80005f2:	f000 fb8b 	bl	8000d0c <HAL_NVIC_EnableIRQ>
 80005f6:	b005      	add	sp, #20
 80005f8:	bd00      	pop	{pc}
 80005fa:	4a0f      	ldr	r2, [pc, #60]	; (8000638 <HAL_TIM_Base_MspInit+0x70>)
 80005fc:	4293      	cmp	r3, r2
 80005fe:	d109      	bne.n	8000614 <HAL_TIM_Base_MspInit+0x4c>
 8000600:	2002      	movs	r0, #2
 8000602:	4a0c      	ldr	r2, [pc, #48]	; (8000634 <HAL_TIM_Base_MspInit+0x6c>)
 8000604:	69d1      	ldr	r1, [r2, #28]
 8000606:	4301      	orrs	r1, r0
 8000608:	61d1      	str	r1, [r2, #28]
 800060a:	69d3      	ldr	r3, [r2, #28]
 800060c:	4003      	ands	r3, r0
 800060e:	9302      	str	r3, [sp, #8]
 8000610:	9b02      	ldr	r3, [sp, #8]
 8000612:	e7f0      	b.n	80005f6 <HAL_TIM_Base_MspInit+0x2e>
 8000614:	4a09      	ldr	r2, [pc, #36]	; (800063c <HAL_TIM_Base_MspInit+0x74>)
 8000616:	4293      	cmp	r3, r2
 8000618:	d1ed      	bne.n	80005f6 <HAL_TIM_Base_MspInit+0x2e>
 800061a:	2080      	movs	r0, #128	; 0x80
 800061c:	4a05      	ldr	r2, [pc, #20]	; (8000634 <HAL_TIM_Base_MspInit+0x6c>)
 800061e:	0280      	lsls	r0, r0, #10
 8000620:	6991      	ldr	r1, [r2, #24]
 8000622:	4301      	orrs	r1, r0
 8000624:	6191      	str	r1, [r2, #24]
 8000626:	6993      	ldr	r3, [r2, #24]
 8000628:	4003      	ands	r3, r0
 800062a:	9303      	str	r3, [sp, #12]
 800062c:	9b03      	ldr	r3, [sp, #12]
 800062e:	e7e2      	b.n	80005f6 <HAL_TIM_Base_MspInit+0x2e>
 8000630:	40012c00 	.word	0x40012c00
 8000634:	40021000 	.word	0x40021000
 8000638:	40000400 	.word	0x40000400
 800063c:	40014400 	.word	0x40014400

08000640 <HAL_TIM_MspPostInit>:
 8000640:	b530      	push	{r4, r5, lr}
 8000642:	0004      	movs	r4, r0
 8000644:	b089      	sub	sp, #36	; 0x24
 8000646:	2214      	movs	r2, #20
 8000648:	2100      	movs	r1, #0
 800064a:	a803      	add	r0, sp, #12
 800064c:	f001 fb91 	bl	8001d72 <memset>
 8000650:	6823      	ldr	r3, [r4, #0]
 8000652:	4a22      	ldr	r2, [pc, #136]	; (80006dc <HAL_TIM_MspPostInit+0x9c>)
 8000654:	4293      	cmp	r3, r2
 8000656:	d129      	bne.n	80006ac <HAL_TIM_MspPostInit+0x6c>
 8000658:	2080      	movs	r0, #128	; 0x80
 800065a:	4b21      	ldr	r3, [pc, #132]	; (80006e0 <HAL_TIM_MspPostInit+0xa0>)
 800065c:	0280      	lsls	r0, r0, #10
 800065e:	6959      	ldr	r1, [r3, #20]
 8000660:	2402      	movs	r4, #2
 8000662:	4301      	orrs	r1, r0
 8000664:	6159      	str	r1, [r3, #20]
 8000666:	2180      	movs	r1, #128	; 0x80
 8000668:	695a      	ldr	r2, [r3, #20]
 800066a:	02c9      	lsls	r1, r1, #11
 800066c:	4002      	ands	r2, r0
 800066e:	9200      	str	r2, [sp, #0]
 8000670:	9a00      	ldr	r2, [sp, #0]
 8000672:	695a      	ldr	r2, [r3, #20]
 8000674:	2090      	movs	r0, #144	; 0x90
 8000676:	430a      	orrs	r2, r1
 8000678:	615a      	str	r2, [r3, #20]
 800067a:	695b      	ldr	r3, [r3, #20]
 800067c:	2501      	movs	r5, #1
 800067e:	400b      	ands	r3, r1
 8000680:	9301      	str	r3, [sp, #4]
 8000682:	9b01      	ldr	r3, [sp, #4]
 8000684:	2380      	movs	r3, #128	; 0x80
 8000686:	a903      	add	r1, sp, #12
 8000688:	05c0      	lsls	r0, r0, #23
 800068a:	9303      	str	r3, [sp, #12]
 800068c:	9404      	str	r4, [sp, #16]
 800068e:	9507      	str	r5, [sp, #28]
 8000690:	f000 fc1a 	bl	8000ec8 <HAL_GPIO_Init>
 8000694:	2300      	movs	r3, #0
 8000696:	4813      	ldr	r0, [pc, #76]	; (80006e4 <HAL_TIM_MspPostInit+0xa4>)
 8000698:	9403      	str	r4, [sp, #12]
 800069a:	9404      	str	r4, [sp, #16]
 800069c:	9305      	str	r3, [sp, #20]
 800069e:	9306      	str	r3, [sp, #24]
 80006a0:	9507      	str	r5, [sp, #28]
 80006a2:	a903      	add	r1, sp, #12
 80006a4:	f000 fc10 	bl	8000ec8 <HAL_GPIO_Init>
 80006a8:	b009      	add	sp, #36	; 0x24
 80006aa:	bd30      	pop	{r4, r5, pc}
 80006ac:	4a0e      	ldr	r2, [pc, #56]	; (80006e8 <HAL_TIM_MspPostInit+0xa8>)
 80006ae:	4293      	cmp	r3, r2
 80006b0:	d1fa      	bne.n	80006a8 <HAL_TIM_MspPostInit+0x68>
 80006b2:	2080      	movs	r0, #128	; 0x80
 80006b4:	4a0a      	ldr	r2, [pc, #40]	; (80006e0 <HAL_TIM_MspPostInit+0xa0>)
 80006b6:	0280      	lsls	r0, r0, #10
 80006b8:	6951      	ldr	r1, [r2, #20]
 80006ba:	4301      	orrs	r1, r0
 80006bc:	6151      	str	r1, [r2, #20]
 80006be:	6953      	ldr	r3, [r2, #20]
 80006c0:	a903      	add	r1, sp, #12
 80006c2:	4003      	ands	r3, r0
 80006c4:	9302      	str	r3, [sp, #8]
 80006c6:	9b02      	ldr	r3, [sp, #8]
 80006c8:	2340      	movs	r3, #64	; 0x40
 80006ca:	2090      	movs	r0, #144	; 0x90
 80006cc:	9303      	str	r3, [sp, #12]
 80006ce:	3b3e      	subs	r3, #62	; 0x3e
 80006d0:	9304      	str	r3, [sp, #16]
 80006d2:	3303      	adds	r3, #3
 80006d4:	9307      	str	r3, [sp, #28]
 80006d6:	05c0      	lsls	r0, r0, #23
 80006d8:	e7e4      	b.n	80006a4 <HAL_TIM_MspPostInit+0x64>
 80006da:	46c0      	nop			; (mov r8, r8)
 80006dc:	40000400 	.word	0x40000400
 80006e0:	40021000 	.word	0x40021000
 80006e4:	48000400 	.word	0x48000400
 80006e8:	40014400 	.word	0x40014400

080006ec <NMI_Handler>:
 80006ec:	4770      	bx	lr

080006ee <HardFault_Handler>:
 80006ee:	e7fe      	b.n	80006ee <HardFault_Handler>

080006f0 <SVC_Handler>:
 80006f0:	4770      	bx	lr

080006f2 <PendSV_Handler>:
 80006f2:	4770      	bx	lr

080006f4 <SysTick_Handler>:
 80006f4:	b510      	push	{r4, lr}
 80006f6:	f000 f871 	bl	80007dc <HAL_IncTick>
 80006fa:	bd10      	pop	{r4, pc}

080006fc <DMA1_Channel1_IRQHandler>:
 80006fc:	b510      	push	{r4, lr}
 80006fe:	4802      	ldr	r0, [pc, #8]	; (8000708 <DMA1_Channel1_IRQHandler+0xc>)
 8000700:	f000 fb98 	bl	8000e34 <HAL_DMA_IRQHandler>
 8000704:	bd10      	pop	{r4, pc}
 8000706:	46c0      	nop			; (mov r8, r8)
 8000708:	200000b0 	.word	0x200000b0

0800070c <TIM1_BRK_UP_TRG_COM_IRQHandler>:
 800070c:	b510      	push	{r4, lr}
 800070e:	4802      	ldr	r0, [pc, #8]	; (8000718 <TIM1_BRK_UP_TRG_COM_IRQHandler+0xc>)
 8000710:	f001 f80a 	bl	8001728 <HAL_TIM_IRQHandler>
 8000714:	bd10      	pop	{r4, pc}
 8000716:	46c0      	nop			; (mov r8, r8)
 8000718:	20000070 	.word	0x20000070

0800071c <SystemInit>:
 800071c:	4770      	bx	lr
	...

08000720 <Reset_Handler>:
 8000720:	480d      	ldr	r0, [pc, #52]	; (8000758 <LoopForever+0x2>)
 8000722:	4685      	mov	sp, r0
 8000724:	480d      	ldr	r0, [pc, #52]	; (800075c <LoopForever+0x6>)
 8000726:	490e      	ldr	r1, [pc, #56]	; (8000760 <LoopForever+0xa>)
 8000728:	4a0e      	ldr	r2, [pc, #56]	; (8000764 <LoopForever+0xe>)
 800072a:	2300      	movs	r3, #0
 800072c:	e002      	b.n	8000734 <LoopCopyDataInit>

0800072e <CopyDataInit>:
 800072e:	58d4      	ldr	r4, [r2, r3]
 8000730:	50c4      	str	r4, [r0, r3]
 8000732:	3304      	adds	r3, #4

08000734 <LoopCopyDataInit>:
 8000734:	18c4      	adds	r4, r0, r3
 8000736:	428c      	cmp	r4, r1
 8000738:	d3f9      	bcc.n	800072e <CopyDataInit>
 800073a:	4a0b      	ldr	r2, [pc, #44]	; (8000768 <LoopForever+0x12>)
 800073c:	4c0b      	ldr	r4, [pc, #44]	; (800076c <LoopForever+0x16>)
 800073e:	2300      	movs	r3, #0
 8000740:	e001      	b.n	8000746 <LoopFillZerobss>

08000742 <FillZerobss>:
 8000742:	6013      	str	r3, [r2, #0]
 8000744:	3204      	adds	r2, #4

08000746 <LoopFillZerobss>:
 8000746:	42a2      	cmp	r2, r4
 8000748:	d3fb      	bcc.n	8000742 <FillZerobss>
 800074a:	f7ff ffe7 	bl	800071c <SystemInit>
 800074e:	f001 fae3 	bl	8001d18 <__libc_init_array>
 8000752:	f7ff fd91 	bl	8000278 <main>

08000756 <LoopForever>:
 8000756:	e7fe      	b.n	8000756 <LoopForever>
 8000758:	20001000 	.word	0x20001000
 800075c:	20000000 	.word	0x20000000
 8000760:	20000010 	.word	0x20000010
 8000764:	08001dd4 	.word	0x08001dd4
 8000768:	20000010 	.word	0x20000010
 800076c:	20000178 	.word	0x20000178

08000770 <ADC1_IRQHandler>:
 8000770:	e7fe      	b.n	8000770 <ADC1_IRQHandler>
	...

08000774 <HAL_InitTick>:
 8000774:	b570      	push	{r4, r5, r6, lr}
 8000776:	0005      	movs	r5, r0
 8000778:	20fa      	movs	r0, #250	; 0xfa
 800077a:	4b0d      	ldr	r3, [pc, #52]	; (80007b0 <HAL_InitTick+0x3c>)
 800077c:	0080      	lsls	r0, r0, #2
 800077e:	7819      	ldrb	r1, [r3, #0]
 8000780:	f7ff fccc 	bl	800011c <__udivsi3>
 8000784:	4b0b      	ldr	r3, [pc, #44]	; (80007b4 <HAL_InitTick+0x40>)
 8000786:	0001      	movs	r1, r0
 8000788:	6818      	ldr	r0, [r3, #0]
 800078a:	f7ff fcc7 	bl	800011c <__udivsi3>
 800078e:	f000 fac9 	bl	8000d24 <HAL_SYSTICK_Config>
 8000792:	0004      	movs	r4, r0
 8000794:	2001      	movs	r0, #1
 8000796:	2c00      	cmp	r4, #0
 8000798:	d109      	bne.n	80007ae <HAL_InitTick+0x3a>
 800079a:	2d03      	cmp	r5, #3
 800079c:	d807      	bhi.n	80007ae <HAL_InitTick+0x3a>
 800079e:	3802      	subs	r0, #2
 80007a0:	0022      	movs	r2, r4
 80007a2:	0029      	movs	r1, r5
 80007a4:	f000 fa88 	bl	8000cb8 <HAL_NVIC_SetPriority>
 80007a8:	0020      	movs	r0, r4
 80007aa:	4b03      	ldr	r3, [pc, #12]	; (80007b8 <HAL_InitTick+0x44>)
 80007ac:	601d      	str	r5, [r3, #0]
 80007ae:	bd70      	pop	{r4, r5, r6, pc}
 80007b0:	20000008 	.word	0x20000008
 80007b4:	20000004 	.word	0x20000004
 80007b8:	2000000c 	.word	0x2000000c

080007bc <HAL_Init>:
 80007bc:	2310      	movs	r3, #16
 80007be:	4a06      	ldr	r2, [pc, #24]	; (80007d8 <HAL_Init+0x1c>)
 80007c0:	b510      	push	{r4, lr}
 80007c2:	6811      	ldr	r1, [r2, #0]
 80007c4:	2000      	movs	r0, #0
 80007c6:	430b      	orrs	r3, r1
 80007c8:	6013      	str	r3, [r2, #0]
 80007ca:	f7ff ffd3 	bl	8000774 <HAL_InitTick>
 80007ce:	f7ff fe97 	bl	8000500 <HAL_MspInit>
 80007d2:	2000      	movs	r0, #0
 80007d4:	bd10      	pop	{r4, pc}
 80007d6:	46c0      	nop			; (mov r8, r8)
 80007d8:	40022000 	.word	0x40022000

080007dc <HAL_IncTick>:
 80007dc:	4a03      	ldr	r2, [pc, #12]	; (80007ec <HAL_IncTick+0x10>)
 80007de:	4b04      	ldr	r3, [pc, #16]	; (80007f0 <HAL_IncTick+0x14>)
 80007e0:	6811      	ldr	r1, [r2, #0]
 80007e2:	781b      	ldrb	r3, [r3, #0]
 80007e4:	185b      	adds	r3, r3, r1
 80007e6:	6013      	str	r3, [r2, #0]
 80007e8:	4770      	bx	lr
 80007ea:	46c0      	nop			; (mov r8, r8)
 80007ec:	20000174 	.word	0x20000174
 80007f0:	20000008 	.word	0x20000008

080007f4 <HAL_GetTick>:
 80007f4:	4b01      	ldr	r3, [pc, #4]	; (80007fc <HAL_GetTick+0x8>)
 80007f6:	6818      	ldr	r0, [r3, #0]
 80007f8:	4770      	bx	lr
 80007fa:	46c0      	nop			; (mov r8, r8)
 80007fc:	20000174 	.word	0x20000174

08000800 <ADC_Enable>:
 8000800:	2300      	movs	r3, #0
 8000802:	b573      	push	{r0, r1, r4, r5, r6, lr}
 8000804:	2103      	movs	r1, #3
 8000806:	9301      	str	r3, [sp, #4]
 8000808:	6803      	ldr	r3, [r0, #0]
 800080a:	0004      	movs	r4, r0
 800080c:	689a      	ldr	r2, [r3, #8]
 800080e:	400a      	ands	r2, r1
 8000810:	2a01      	cmp	r2, #1
 8000812:	d107      	bne.n	8000824 <ADC_Enable+0x24>
 8000814:	6819      	ldr	r1, [r3, #0]
 8000816:	4211      	tst	r1, r2
 8000818:	d001      	beq.n	800081e <ADC_Enable+0x1e>
 800081a:	2000      	movs	r0, #0
 800081c:	bd76      	pop	{r1, r2, r4, r5, r6, pc}
 800081e:	68da      	ldr	r2, [r3, #12]
 8000820:	0412      	lsls	r2, r2, #16
 8000822:	d4fa      	bmi.n	800081a <ADC_Enable+0x1a>
 8000824:	6899      	ldr	r1, [r3, #8]
 8000826:	4a19      	ldr	r2, [pc, #100]	; (800088c <ADC_Enable+0x8c>)
 8000828:	4211      	tst	r1, r2
 800082a:	d008      	beq.n	800083e <ADC_Enable+0x3e>
 800082c:	2310      	movs	r3, #16
 800082e:	2001      	movs	r0, #1
 8000830:	6ba2      	ldr	r2, [r4, #56]	; 0x38
 8000832:	4313      	orrs	r3, r2
 8000834:	63a3      	str	r3, [r4, #56]	; 0x38
 8000836:	6be3      	ldr	r3, [r4, #60]	; 0x3c
 8000838:	4303      	orrs	r3, r0
 800083a:	63e3      	str	r3, [r4, #60]	; 0x3c
 800083c:	e7ee      	b.n	800081c <ADC_Enable+0x1c>
 800083e:	2201      	movs	r2, #1
 8000840:	6899      	ldr	r1, [r3, #8]
 8000842:	430a      	orrs	r2, r1
 8000844:	609a      	str	r2, [r3, #8]
 8000846:	4b12      	ldr	r3, [pc, #72]	; (8000890 <ADC_Enable+0x90>)
 8000848:	4912      	ldr	r1, [pc, #72]	; (8000894 <ADC_Enable+0x94>)
 800084a:	6818      	ldr	r0, [r3, #0]
 800084c:	f7ff fc66 	bl	800011c <__udivsi3>
 8000850:	9001      	str	r0, [sp, #4]
 8000852:	9b01      	ldr	r3, [sp, #4]
 8000854:	2b00      	cmp	r3, #0
 8000856:	d115      	bne.n	8000884 <ADC_Enable+0x84>
 8000858:	f7ff ffcc 	bl	80007f4 <HAL_GetTick>
 800085c:	2501      	movs	r5, #1
 800085e:	0006      	movs	r6, r0
 8000860:	6823      	ldr	r3, [r4, #0]
 8000862:	681b      	ldr	r3, [r3, #0]
 8000864:	422b      	tst	r3, r5
 8000866:	d1d8      	bne.n	800081a <ADC_Enable+0x1a>
 8000868:	f7ff ffc4 	bl	80007f4 <HAL_GetTick>
 800086c:	1b80      	subs	r0, r0, r6
 800086e:	2802      	cmp	r0, #2
 8000870:	d9f6      	bls.n	8000860 <ADC_Enable+0x60>
 8000872:	2310      	movs	r3, #16
 8000874:	6ba2      	ldr	r2, [r4, #56]	; 0x38
 8000876:	2001      	movs	r0, #1
 8000878:	4313      	orrs	r3, r2
 800087a:	63a3      	str	r3, [r4, #56]	; 0x38
 800087c:	6be3      	ldr	r3, [r4, #60]	; 0x3c
 800087e:	432b      	orrs	r3, r5
 8000880:	63e3      	str	r3, [r4, #60]	; 0x3c
 8000882:	e7cb      	b.n	800081c <ADC_Enable+0x1c>
 8000884:	9b01      	ldr	r3, [sp, #4]
 8000886:	3b01      	subs	r3, #1
 8000888:	9301      	str	r3, [sp, #4]
 800088a:	e7e2      	b.n	8000852 <ADC_Enable+0x52>
 800088c:	80000017 	.word	0x80000017
 8000890:	20000004 	.word	0x20000004
 8000894:	000f4240 	.word	0x000f4240

08000898 <HAL_ADC_Init>:
 8000898:	b5f8      	push	{r3, r4, r5, r6, r7, lr}
 800089a:	0004      	movs	r4, r0
 800089c:	2001      	movs	r0, #1
 800089e:	2c00      	cmp	r4, #0
 80008a0:	d07e      	beq.n	80009a0 <HAL_ADC_Init+0x108>
 80008a2:	6ba3      	ldr	r3, [r4, #56]	; 0x38
 80008a4:	2b00      	cmp	r3, #0
 80008a6:	d106      	bne.n	80008b6 <HAL_ADC_Init+0x1e>
 80008a8:	0022      	movs	r2, r4
 80008aa:	3234      	adds	r2, #52	; 0x34
 80008ac:	63e3      	str	r3, [r4, #60]	; 0x3c
 80008ae:	0020      	movs	r0, r4
 80008b0:	7013      	strb	r3, [r2, #0]
 80008b2:	f7ff fe3d 	bl	8000530 <HAL_ADC_MspInit>
 80008b6:	6ba3      	ldr	r3, [r4, #56]	; 0x38
 80008b8:	06db      	lsls	r3, r3, #27
 80008ba:	d500      	bpl.n	80008be <HAL_ADC_Init+0x26>
 80008bc:	e085      	b.n	80009ca <HAL_ADC_Init+0x132>
 80008be:	2204      	movs	r2, #4
 80008c0:	6823      	ldr	r3, [r4, #0]
 80008c2:	6898      	ldr	r0, [r3, #8]
 80008c4:	4010      	ands	r0, r2
 80008c6:	d000      	beq.n	80008ca <HAL_ADC_Init+0x32>
 80008c8:	e07f      	b.n	80009ca <HAL_ADC_Init+0x132>
 80008ca:	6ba2      	ldr	r2, [r4, #56]	; 0x38
 80008cc:	4942      	ldr	r1, [pc, #264]	; (80009d8 <HAL_ADC_Init+0x140>)
 80008ce:	4011      	ands	r1, r2
 80008d0:	2202      	movs	r2, #2
 80008d2:	430a      	orrs	r2, r1
 80008d4:	2103      	movs	r1, #3
 80008d6:	63a2      	str	r2, [r4, #56]	; 0x38
 80008d8:	689a      	ldr	r2, [r3, #8]
 80008da:	400a      	ands	r2, r1
 80008dc:	2a01      	cmp	r2, #1
 80008de:	d105      	bne.n	80008ec <HAL_ADC_Init+0x54>
 80008e0:	6819      	ldr	r1, [r3, #0]
 80008e2:	4211      	tst	r1, r2
 80008e4:	d10e      	bne.n	8000904 <HAL_ADC_Init+0x6c>
 80008e6:	68da      	ldr	r2, [r3, #12]
 80008e8:	0412      	lsls	r2, r2, #16
 80008ea:	d40b      	bmi.n	8000904 <HAL_ADC_Init+0x6c>
 80008ec:	2118      	movs	r1, #24
 80008ee:	68da      	ldr	r2, [r3, #12]
 80008f0:	438a      	bics	r2, r1
 80008f2:	68a1      	ldr	r1, [r4, #8]
 80008f4:	430a      	orrs	r2, r1
 80008f6:	60da      	str	r2, [r3, #12]
 80008f8:	6919      	ldr	r1, [r3, #16]
 80008fa:	6862      	ldr	r2, [r4, #4]
 80008fc:	0089      	lsls	r1, r1, #2
 80008fe:	0889      	lsrs	r1, r1, #2
 8000900:	4311      	orrs	r1, r2
 8000902:	6119      	str	r1, [r3, #16]
 8000904:	68da      	ldr	r2, [r3, #12]
 8000906:	4935      	ldr	r1, [pc, #212]	; (80009dc <HAL_ADC_Init+0x144>)
 8000908:	400a      	ands	r2, r1
 800090a:	60da      	str	r2, [r3, #12]
 800090c:	7e25      	ldrb	r5, [r4, #24]
 800090e:	7e62      	ldrb	r2, [r4, #25]
 8000910:	03ad      	lsls	r5, r5, #14
 8000912:	03d2      	lsls	r2, r2, #15
 8000914:	4315      	orrs	r5, r2
 8000916:	6aa2      	ldr	r2, [r4, #40]	; 0x28
 8000918:	7ea1      	ldrb	r1, [r4, #26]
 800091a:	3a01      	subs	r2, #1
 800091c:	1e56      	subs	r6, r2, #1
 800091e:	41b2      	sbcs	r2, r6
 8000920:	0316      	lsls	r6, r2, #12
 8000922:	68e2      	ldr	r2, [r4, #12]
 8000924:	034f      	lsls	r7, r1, #13
 8000926:	4315      	orrs	r5, r2
 8000928:	6922      	ldr	r2, [r4, #16]
 800092a:	432f      	orrs	r7, r5
 800092c:	2a02      	cmp	r2, #2
 800092e:	d100      	bne.n	8000932 <HAL_ADC_Init+0x9a>
 8000930:	2004      	movs	r0, #4
 8000932:	1d62      	adds	r2, r4, #5
 8000934:	7fd2      	ldrb	r2, [r2, #31]
 8000936:	0052      	lsls	r2, r2, #1
 8000938:	433a      	orrs	r2, r7
 800093a:	4332      	orrs	r2, r6
 800093c:	4302      	orrs	r2, r0
 800093e:	7ee0      	ldrb	r0, [r4, #27]
 8000940:	2801      	cmp	r0, #1
 8000942:	d104      	bne.n	800094e <HAL_ADC_Init+0xb6>
 8000944:	2900      	cmp	r1, #0
 8000946:	d12c      	bne.n	80009a2 <HAL_ADC_Init+0x10a>
 8000948:	2180      	movs	r1, #128	; 0x80
 800094a:	0249      	lsls	r1, r1, #9
 800094c:	430a      	orrs	r2, r1
 800094e:	20c2      	movs	r0, #194	; 0xc2
 8000950:	69e1      	ldr	r1, [r4, #28]
 8000952:	30ff      	adds	r0, #255	; 0xff
 8000954:	4281      	cmp	r1, r0
 8000956:	d002      	beq.n	800095e <HAL_ADC_Init+0xc6>
 8000958:	6a20      	ldr	r0, [r4, #32]
 800095a:	4301      	orrs	r1, r0
 800095c:	430a      	orrs	r2, r1
 800095e:	2080      	movs	r0, #128	; 0x80
 8000960:	68d9      	ldr	r1, [r3, #12]
 8000962:	0540      	lsls	r0, r0, #21
 8000964:	4311      	orrs	r1, r2
 8000966:	60d9      	str	r1, [r3, #12]
 8000968:	6ae1      	ldr	r1, [r4, #44]	; 0x2c
 800096a:	4281      	cmp	r1, r0
 800096c:	d002      	beq.n	8000974 <HAL_ADC_Init+0xdc>
 800096e:	1e48      	subs	r0, r1, #1
 8000970:	2806      	cmp	r0, #6
 8000972:	d807      	bhi.n	8000984 <HAL_ADC_Init+0xec>
 8000974:	2507      	movs	r5, #7
 8000976:	6958      	ldr	r0, [r3, #20]
 8000978:	4029      	ands	r1, r5
 800097a:	43a8      	bics	r0, r5
 800097c:	6158      	str	r0, [r3, #20]
 800097e:	6958      	ldr	r0, [r3, #20]
 8000980:	4301      	orrs	r1, r0
 8000982:	6159      	str	r1, [r3, #20]
 8000984:	68db      	ldr	r3, [r3, #12]
 8000986:	4916      	ldr	r1, [pc, #88]	; (80009e0 <HAL_ADC_Init+0x148>)
 8000988:	400b      	ands	r3, r1
 800098a:	4293      	cmp	r3, r2
 800098c:	d111      	bne.n	80009b2 <HAL_ADC_Init+0x11a>
 800098e:	2000      	movs	r0, #0
 8000990:	2203      	movs	r2, #3
 8000992:	63e0      	str	r0, [r4, #60]	; 0x3c
 8000994:	6ba3      	ldr	r3, [r4, #56]	; 0x38
 8000996:	4393      	bics	r3, r2
 8000998:	001a      	movs	r2, r3
 800099a:	2301      	movs	r3, #1
 800099c:	4313      	orrs	r3, r2
 800099e:	63a3      	str	r3, [r4, #56]	; 0x38
 80009a0:	bdf8      	pop	{r3, r4, r5, r6, r7, pc}
 80009a2:	2120      	movs	r1, #32
 80009a4:	6ba5      	ldr	r5, [r4, #56]	; 0x38
 80009a6:	4329      	orrs	r1, r5
 80009a8:	63a1      	str	r1, [r4, #56]	; 0x38
 80009aa:	6be1      	ldr	r1, [r4, #60]	; 0x3c
 80009ac:	4308      	orrs	r0, r1
 80009ae:	63e0      	str	r0, [r4, #60]	; 0x3c
 80009b0:	e7cd      	b.n	800094e <HAL_ADC_Init+0xb6>
 80009b2:	2212      	movs	r2, #18
 80009b4:	6ba3      	ldr	r3, [r4, #56]	; 0x38
 80009b6:	2001      	movs	r0, #1
 80009b8:	4393      	bics	r3, r2
 80009ba:	001a      	movs	r2, r3
 80009bc:	2310      	movs	r3, #16
 80009be:	4313      	orrs	r3, r2
 80009c0:	63a3      	str	r3, [r4, #56]	; 0x38
 80009c2:	6be3      	ldr	r3, [r4, #60]	; 0x3c
 80009c4:	4303      	orrs	r3, r0
 80009c6:	63e3      	str	r3, [r4, #60]	; 0x3c
 80009c8:	e7ea      	b.n	80009a0 <HAL_ADC_Init+0x108>
 80009ca:	2310      	movs	r3, #16
 80009cc:	6ba2      	ldr	r2, [r4, #56]	; 0x38
 80009ce:	2001      	movs	r0, #1
 80009d0:	4313      	orrs	r3, r2
 80009d2:	63a3      	str	r3, [r4, #56]	; 0x38
 80009d4:	e7e4      	b.n	80009a0 <HAL_ADC_Init+0x108>
 80009d6:	46c0      	nop			; (mov r8, r8)
 80009d8:	fffffefd 	.word	0xfffffefd
 80009dc:	fffe0219 	.word	0xfffe0219
 80009e0:	833fffe7 	.word	0x833fffe7

080009e4 <HAL_ADC_Start_DMA>:
 80009e4:	b5f7      	push	{r0, r1, r2, r4, r5, r6, r7, lr}
 80009e6:	6803      	ldr	r3, [r0, #0]
 80009e8:	0004      	movs	r4, r0
 80009ea:	689b      	ldr	r3, [r3, #8]
 80009ec:	000f      	movs	r7, r1
 80009ee:	9201      	str	r2, [sp, #4]
 80009f0:	2002      	movs	r0, #2
 80009f2:	075b      	lsls	r3, r3, #29
 80009f4:	d430      	bmi.n	8000a58 <HAL_ADC_Start_DMA+0x74>
 80009f6:	0026      	movs	r6, r4
 80009f8:	3634      	adds	r6, #52	; 0x34
 80009fa:	7833      	ldrb	r3, [r6, #0]
 80009fc:	2b01      	cmp	r3, #1
 80009fe:	d02b      	beq.n	8000a58 <HAL_ADC_Start_DMA+0x74>
 8000a00:	2301      	movs	r3, #1
 8000a02:	7033      	strb	r3, [r6, #0]
 8000a04:	7e63      	ldrb	r3, [r4, #25]
 8000a06:	2b01      	cmp	r3, #1
 8000a08:	d127      	bne.n	8000a5a <HAL_ADC_Start_DMA+0x76>
 8000a0a:	6ba3      	ldr	r3, [r4, #56]	; 0x38
 8000a0c:	4a16      	ldr	r2, [pc, #88]	; (8000a68 <HAL_ADC_Start_DMA+0x84>)
 8000a0e:	2500      	movs	r5, #0
 8000a10:	401a      	ands	r2, r3
 8000a12:	2380      	movs	r3, #128	; 0x80
 8000a14:	005b      	lsls	r3, r3, #1
 8000a16:	4313      	orrs	r3, r2
 8000a18:	63a3      	str	r3, [r4, #56]	; 0x38
 8000a1a:	6b20      	ldr	r0, [r4, #48]	; 0x30
 8000a1c:	4b13      	ldr	r3, [pc, #76]	; (8000a6c <HAL_ADC_Start_DMA+0x88>)
 8000a1e:	63e5      	str	r5, [r4, #60]	; 0x3c
 8000a20:	7035      	strb	r5, [r6, #0]
 8000a22:	6283      	str	r3, [r0, #40]	; 0x28
 8000a24:	4b12      	ldr	r3, [pc, #72]	; (8000a70 <HAL_ADC_Start_DMA+0x8c>)
 8000a26:	6821      	ldr	r1, [r4, #0]
 8000a28:	62c3      	str	r3, [r0, #44]	; 0x2c
 8000a2a:	4b12      	ldr	r3, [pc, #72]	; (8000a74 <HAL_ADC_Start_DMA+0x90>)
 8000a2c:	6303      	str	r3, [r0, #48]	; 0x30
 8000a2e:	231c      	movs	r3, #28
 8000a30:	600b      	str	r3, [r1, #0]
 8000a32:	684a      	ldr	r2, [r1, #4]
 8000a34:	3b0c      	subs	r3, #12
 8000a36:	4313      	orrs	r3, r2
 8000a38:	604b      	str	r3, [r1, #4]
 8000a3a:	2301      	movs	r3, #1
 8000a3c:	68ca      	ldr	r2, [r1, #12]
 8000a3e:	4313      	orrs	r3, r2
 8000a40:	60cb      	str	r3, [r1, #12]
 8000a42:	003a      	movs	r2, r7
 8000a44:	3140      	adds	r1, #64	; 0x40
 8000a46:	9b01      	ldr	r3, [sp, #4]
 8000a48:	f000 f9b8 	bl	8000dbc <HAL_DMA_Start_IT>
 8000a4c:	2304      	movs	r3, #4
 8000a4e:	0028      	movs	r0, r5
 8000a50:	6822      	ldr	r2, [r4, #0]
 8000a52:	6891      	ldr	r1, [r2, #8]
 8000a54:	430b      	orrs	r3, r1
 8000a56:	6093      	str	r3, [r2, #8]
 8000a58:	bdfe      	pop	{r1, r2, r3, r4, r5, r6, r7, pc}
 8000a5a:	0020      	movs	r0, r4
 8000a5c:	f7ff fed0 	bl	8000800 <ADC_Enable>
 8000a60:	2800      	cmp	r0, #0
 8000a62:	d0d2      	beq.n	8000a0a <HAL_ADC_Start_DMA+0x26>
 8000a64:	e7f8      	b.n	8000a58 <HAL_ADC_Start_DMA+0x74>
 8000a66:	46c0      	nop			; (mov r8, r8)
 8000a68:	fffff0fe 	.word	0xfffff0fe
 8000a6c:	08000a7d 	.word	0x08000a7d
 8000a70:	08000aef 	.word	0x08000aef
 8000a74:	08000afb 	.word	0x08000afb

08000a78 <HAL_ADC_ConvCpltCallback>:
 8000a78:	4770      	bx	lr
	...

08000a7c <ADC_DMAConvCplt>:
 8000a7c:	2250      	movs	r2, #80	; 0x50
 8000a7e:	6a43      	ldr	r3, [r0, #36]	; 0x24
 8000a80:	b510      	push	{r4, lr}
 8000a82:	6b99      	ldr	r1, [r3, #56]	; 0x38
 8000a84:	4211      	tst	r1, r2
 8000a86:	d12a      	bne.n	8000ade <ADC_DMAConvCplt+0x62>
 8000a88:	6b99      	ldr	r1, [r3, #56]	; 0x38
 8000a8a:	32b1      	adds	r2, #177	; 0xb1
 8000a8c:	32ff      	adds	r2, #255	; 0xff
 8000a8e:	430a      	orrs	r2, r1
 8000a90:	21c0      	movs	r1, #192	; 0xc0
 8000a92:	639a      	str	r2, [r3, #56]	; 0x38
 8000a94:	681a      	ldr	r2, [r3, #0]
 8000a96:	0109      	lsls	r1, r1, #4
 8000a98:	68d0      	ldr	r0, [r2, #12]
 8000a9a:	4208      	tst	r0, r1
 8000a9c:	d112      	bne.n	8000ac4 <ADC_DMAConvCplt+0x48>
 8000a9e:	7e99      	ldrb	r1, [r3, #26]
 8000aa0:	2900      	cmp	r1, #0
 8000aa2:	d10f      	bne.n	8000ac4 <ADC_DMAConvCplt+0x48>
 8000aa4:	6811      	ldr	r1, [r2, #0]
 8000aa6:	0709      	lsls	r1, r1, #28
 8000aa8:	d50c      	bpl.n	8000ac4 <ADC_DMAConvCplt+0x48>
 8000aaa:	6891      	ldr	r1, [r2, #8]
 8000aac:	0749      	lsls	r1, r1, #29
 8000aae:	d40d      	bmi.n	8000acc <ADC_DMAConvCplt+0x50>
 8000ab0:	200c      	movs	r0, #12
 8000ab2:	6851      	ldr	r1, [r2, #4]
 8000ab4:	4381      	bics	r1, r0
 8000ab6:	6051      	str	r1, [r2, #4]
 8000ab8:	6b9a      	ldr	r2, [r3, #56]	; 0x38
 8000aba:	490b      	ldr	r1, [pc, #44]	; (8000ae8 <ADC_DMAConvCplt+0x6c>)
 8000abc:	4011      	ands	r1, r2
 8000abe:	2201      	movs	r2, #1
 8000ac0:	430a      	orrs	r2, r1
 8000ac2:	639a      	str	r2, [r3, #56]	; 0x38
 8000ac4:	0018      	movs	r0, r3
 8000ac6:	f7ff ffd7 	bl	8000a78 <HAL_ADC_ConvCpltCallback>
 8000aca:	bd10      	pop	{r4, pc}
 8000acc:	2220      	movs	r2, #32
 8000ace:	6b99      	ldr	r1, [r3, #56]	; 0x38
 8000ad0:	430a      	orrs	r2, r1
 8000ad2:	639a      	str	r2, [r3, #56]	; 0x38
 8000ad4:	2201      	movs	r2, #1
 8000ad6:	6bd9      	ldr	r1, [r3, #60]	; 0x3c
 8000ad8:	430a      	orrs	r2, r1
 8000ada:	63da      	str	r2, [r3, #60]	; 0x3c
 8000adc:	e7f2      	b.n	8000ac4 <ADC_DMAConvCplt+0x48>
 8000ade:	6b1b      	ldr	r3, [r3, #48]	; 0x30
 8000ae0:	6b1b      	ldr	r3, [r3, #48]	; 0x30
 8000ae2:	4798      	blx	r3
 8000ae4:	e7f1      	b.n	8000aca <ADC_DMAConvCplt+0x4e>
 8000ae6:	46c0      	nop			; (mov r8, r8)
 8000ae8:	fffffefe 	.word	0xfffffefe

08000aec <HAL_ADC_ConvHalfCpltCallback>:
 8000aec:	4770      	bx	lr

08000aee <ADC_DMAHalfConvCplt>:
 8000aee:	b510      	push	{r4, lr}
 8000af0:	6a40      	ldr	r0, [r0, #36]	; 0x24
 8000af2:	f7ff fffb 	bl	8000aec <HAL_ADC_ConvHalfCpltCallback>
 8000af6:	bd10      	pop	{r4, pc}

08000af8 <HAL_ADC_ErrorCallback>:
 8000af8:	4770      	bx	lr

08000afa <ADC_DMAError>:
 8000afa:	2340      	movs	r3, #64	; 0x40
 8000afc:	6a40      	ldr	r0, [r0, #36]	; 0x24
 8000afe:	b510      	push	{r4, lr}
 8000b00:	6b82      	ldr	r2, [r0, #56]	; 0x38
 8000b02:	4313      	orrs	r3, r2
 8000b04:	6383      	str	r3, [r0, #56]	; 0x38
 8000b06:	2304      	movs	r3, #4
 8000b08:	6bc2      	ldr	r2, [r0, #60]	; 0x3c
 8000b0a:	4313      	orrs	r3, r2
 8000b0c:	63c3      	str	r3, [r0, #60]	; 0x3c
 8000b0e:	f7ff fff3 	bl	8000af8 <HAL_ADC_ErrorCallback>
 8000b12:	bd10      	pop	{r4, pc}

08000b14 <HAL_ADC_ConfigChannel>:
 8000b14:	b5f0      	push	{r4, r5, r6, r7, lr}
 8000b16:	2300      	movs	r3, #0
 8000b18:	0004      	movs	r4, r0
 8000b1a:	b085      	sub	sp, #20
 8000b1c:	9303      	str	r3, [sp, #12]
 8000b1e:	3434      	adds	r4, #52	; 0x34
 8000b20:	7823      	ldrb	r3, [r4, #0]
 8000b22:	0002      	movs	r2, r0
 8000b24:	2002      	movs	r0, #2
 8000b26:	2b01      	cmp	r3, #1
 8000b28:	d02f      	beq.n	8000b8a <HAL_ADC_ConfigChannel+0x76>
 8000b2a:	6ad3      	ldr	r3, [r2, #44]	; 0x2c
 8000b2c:	6817      	ldr	r7, [r2, #0]
 8000b2e:	469c      	mov	ip, r3
 8000b30:	2301      	movs	r3, #1
 8000b32:	68bd      	ldr	r5, [r7, #8]
 8000b34:	1800      	adds	r0, r0, r0
 8000b36:	7023      	strb	r3, [r4, #0]
 8000b38:	4005      	ands	r5, r0
 8000b3a:	d159      	bne.n	8000bf0 <HAL_ADC_ConfigChannel+0xdc>
 8000b3c:	680e      	ldr	r6, [r1, #0]
 8000b3e:	482f      	ldr	r0, [pc, #188]	; (8000bfc <HAL_ADC_ConfigChannel+0xe8>)
 8000b40:	40b3      	lsls	r3, r6
 8000b42:	0032      	movs	r2, r6
 8000b44:	9301      	str	r3, [sp, #4]
 8000b46:	684b      	ldr	r3, [r1, #4]
 8000b48:	3a10      	subs	r2, #16
 8000b4a:	4283      	cmp	r3, r0
 8000b4c:	d03d      	beq.n	8000bca <HAL_ADC_ConfigChannel+0xb6>
 8000b4e:	6abb      	ldr	r3, [r7, #40]	; 0x28
 8000b50:	9801      	ldr	r0, [sp, #4]
 8000b52:	4318      	orrs	r0, r3
 8000b54:	2380      	movs	r3, #128	; 0x80
 8000b56:	62b8      	str	r0, [r7, #40]	; 0x28
 8000b58:	055b      	lsls	r3, r3, #21
 8000b5a:	459c      	cmp	ip, r3
 8000b5c:	d010      	beq.n	8000b80 <HAL_ADC_ConfigChannel+0x6c>
 8000b5e:	4663      	mov	r3, ip
 8000b60:	3b01      	subs	r3, #1
 8000b62:	2b06      	cmp	r3, #6
 8000b64:	d90c      	bls.n	8000b80 <HAL_ADC_ConfigChannel+0x6c>
 8000b66:	688b      	ldr	r3, [r1, #8]
 8000b68:	2107      	movs	r1, #7
 8000b6a:	6978      	ldr	r0, [r7, #20]
 8000b6c:	4008      	ands	r0, r1
 8000b6e:	4283      	cmp	r3, r0
 8000b70:	d006      	beq.n	8000b80 <HAL_ADC_ConfigChannel+0x6c>
 8000b72:	6978      	ldr	r0, [r7, #20]
 8000b74:	400b      	ands	r3, r1
 8000b76:	4388      	bics	r0, r1
 8000b78:	6178      	str	r0, [r7, #20]
 8000b7a:	6978      	ldr	r0, [r7, #20]
 8000b7c:	4303      	orrs	r3, r0
 8000b7e:	617b      	str	r3, [r7, #20]
 8000b80:	2a01      	cmp	r2, #1
 8000b82:	d904      	bls.n	8000b8e <HAL_ADC_ConfigChannel+0x7a>
 8000b84:	2000      	movs	r0, #0
 8000b86:	2300      	movs	r3, #0
 8000b88:	7023      	strb	r3, [r4, #0]
 8000b8a:	b005      	add	sp, #20
 8000b8c:	bdf0      	pop	{r4, r5, r6, r7, pc}
 8000b8e:	0033      	movs	r3, r6
 8000b90:	3b10      	subs	r3, #16
 8000b92:	1e58      	subs	r0, r3, #1
 8000b94:	4183      	sbcs	r3, r0
 8000b96:	2080      	movs	r0, #128	; 0x80
 8000b98:	4919      	ldr	r1, [pc, #100]	; (8000c00 <HAL_ADC_ConfigChannel+0xec>)
 8000b9a:	425b      	negs	r3, r3
 8000b9c:	680a      	ldr	r2, [r1, #0]
 8000b9e:	059b      	lsls	r3, r3, #22
 8000ba0:	0400      	lsls	r0, r0, #16
 8000ba2:	181b      	adds	r3, r3, r0
 8000ba4:	4313      	orrs	r3, r2
 8000ba6:	600b      	str	r3, [r1, #0]
 8000ba8:	2e10      	cmp	r6, #16
 8000baa:	d1eb      	bne.n	8000b84 <HAL_ADC_ConfigChannel+0x70>
 8000bac:	4b15      	ldr	r3, [pc, #84]	; (8000c04 <HAL_ADC_ConfigChannel+0xf0>)
 8000bae:	4916      	ldr	r1, [pc, #88]	; (8000c08 <HAL_ADC_ConfigChannel+0xf4>)
 8000bb0:	6818      	ldr	r0, [r3, #0]
 8000bb2:	f7ff fab3 	bl	800011c <__udivsi3>
 8000bb6:	230a      	movs	r3, #10
 8000bb8:	4358      	muls	r0, r3
 8000bba:	9003      	str	r0, [sp, #12]
 8000bbc:	9b03      	ldr	r3, [sp, #12]
 8000bbe:	2b00      	cmp	r3, #0
 8000bc0:	d0e0      	beq.n	8000b84 <HAL_ADC_ConfigChannel+0x70>
 8000bc2:	9b03      	ldr	r3, [sp, #12]
 8000bc4:	3b01      	subs	r3, #1
 8000bc6:	9303      	str	r3, [sp, #12]
 8000bc8:	e7f8      	b.n	8000bbc <HAL_ADC_ConfigChannel+0xa8>
 8000bca:	6ab9      	ldr	r1, [r7, #40]	; 0x28
 8000bcc:	9b01      	ldr	r3, [sp, #4]
 8000bce:	4399      	bics	r1, r3
 8000bd0:	62b9      	str	r1, [r7, #40]	; 0x28
 8000bd2:	2a01      	cmp	r2, #1
 8000bd4:	d8d6      	bhi.n	8000b84 <HAL_ADC_ConfigChannel+0x70>
 8000bd6:	1e53      	subs	r3, r2, #1
 8000bd8:	419a      	sbcs	r2, r3
 8000bda:	4253      	negs	r3, r2
 8000bdc:	2280      	movs	r2, #128	; 0x80
 8000bde:	4908      	ldr	r1, [pc, #32]	; (8000c00 <HAL_ADC_ConfigChannel+0xec>)
 8000be0:	03d2      	lsls	r2, r2, #15
 8000be2:	4013      	ands	r3, r2
 8000be4:	4a09      	ldr	r2, [pc, #36]	; (8000c0c <HAL_ADC_ConfigChannel+0xf8>)
 8000be6:	6808      	ldr	r0, [r1, #0]
 8000be8:	189b      	adds	r3, r3, r2
 8000bea:	4003      	ands	r3, r0
 8000bec:	600b      	str	r3, [r1, #0]
 8000bee:	e7c9      	b.n	8000b84 <HAL_ADC_ConfigChannel+0x70>
 8000bf0:	2120      	movs	r1, #32
 8000bf2:	6b90      	ldr	r0, [r2, #56]	; 0x38
 8000bf4:	4301      	orrs	r1, r0
 8000bf6:	6391      	str	r1, [r2, #56]	; 0x38
 8000bf8:	0018      	movs	r0, r3
 8000bfa:	e7c4      	b.n	8000b86 <HAL_ADC_ConfigChannel+0x72>
 8000bfc:	00001001 	.word	0x00001001
 8000c00:	40012708 	.word	0x40012708
 8000c04:	20000004 	.word	0x20000004
 8000c08:	000f4240 	.word	0x000f4240
 8000c0c:	ff7fffff 	.word	0xff7fffff

08000c10 <HAL_ADCEx_Calibration_Start>:
 8000c10:	b5f8      	push	{r3, r4, r5, r6, r7, lr}
 8000c12:	0006      	movs	r6, r0
 8000c14:	3634      	adds	r6, #52	; 0x34
 8000c16:	7833      	ldrb	r3, [r6, #0]
 8000c18:	0004      	movs	r4, r0
 8000c1a:	2002      	movs	r0, #2
 8000c1c:	2b01      	cmp	r3, #1
 8000c1e:	d042      	beq.n	8000ca6 <HAL_ADCEx_Calibration_Start+0x96>
 8000c20:	2301      	movs	r3, #1
 8000c22:	2103      	movs	r1, #3
 8000c24:	7033      	strb	r3, [r6, #0]
 8000c26:	6823      	ldr	r3, [r4, #0]
 8000c28:	689a      	ldr	r2, [r3, #8]
 8000c2a:	400a      	ands	r2, r1
 8000c2c:	2a01      	cmp	r2, #1
 8000c2e:	d105      	bne.n	8000c3c <HAL_ADCEx_Calibration_Start+0x2c>
 8000c30:	6819      	ldr	r1, [r3, #0]
 8000c32:	4211      	tst	r1, r2
 8000c34:	d138      	bne.n	8000ca8 <HAL_ADCEx_Calibration_Start+0x98>
 8000c36:	68da      	ldr	r2, [r3, #12]
 8000c38:	0412      	lsls	r2, r2, #16
 8000c3a:	d435      	bmi.n	8000ca8 <HAL_ADCEx_Calibration_Start+0x98>
 8000c3c:	6ba2      	ldr	r2, [r4, #56]	; 0x38
 8000c3e:	491d      	ldr	r1, [pc, #116]	; (8000cb4 <HAL_ADCEx_Calibration_Start+0xa4>)
 8000c40:	4011      	ands	r1, r2
 8000c42:	2202      	movs	r2, #2
 8000c44:	430a      	orrs	r2, r1
 8000c46:	2103      	movs	r1, #3
 8000c48:	63a2      	str	r2, [r4, #56]	; 0x38
 8000c4a:	68dd      	ldr	r5, [r3, #12]
 8000c4c:	68da      	ldr	r2, [r3, #12]
 8000c4e:	438a      	bics	r2, r1
 8000c50:	60da      	str	r2, [r3, #12]
 8000c52:	2280      	movs	r2, #128	; 0x80
 8000c54:	6899      	ldr	r1, [r3, #8]
 8000c56:	0612      	lsls	r2, r2, #24
 8000c58:	430a      	orrs	r2, r1
 8000c5a:	609a      	str	r2, [r3, #8]
 8000c5c:	f7ff fdca 	bl	80007f4 <HAL_GetTick>
 8000c60:	0007      	movs	r7, r0
 8000c62:	6823      	ldr	r3, [r4, #0]
 8000c64:	689a      	ldr	r2, [r3, #8]
 8000c66:	2a00      	cmp	r2, #0
 8000c68:	db0e      	blt.n	8000c88 <HAL_ADCEx_Calibration_Start+0x78>
 8000c6a:	2203      	movs	r2, #3
 8000c6c:	68d9      	ldr	r1, [r3, #12]
 8000c6e:	4015      	ands	r5, r2
 8000c70:	430d      	orrs	r5, r1
 8000c72:	60dd      	str	r5, [r3, #12]
 8000c74:	6ba3      	ldr	r3, [r4, #56]	; 0x38
 8000c76:	2000      	movs	r0, #0
 8000c78:	4393      	bics	r3, r2
 8000c7a:	001a      	movs	r2, r3
 8000c7c:	2301      	movs	r3, #1
 8000c7e:	4313      	orrs	r3, r2
 8000c80:	63a3      	str	r3, [r4, #56]	; 0x38
 8000c82:	2300      	movs	r3, #0
 8000c84:	7033      	strb	r3, [r6, #0]
 8000c86:	e00e      	b.n	8000ca6 <HAL_ADCEx_Calibration_Start+0x96>
 8000c88:	f7ff fdb4 	bl	80007f4 <HAL_GetTick>
 8000c8c:	1bc0      	subs	r0, r0, r7
 8000c8e:	2802      	cmp	r0, #2
 8000c90:	d9e7      	bls.n	8000c62 <HAL_ADCEx_Calibration_Start+0x52>
 8000c92:	2212      	movs	r2, #18
 8000c94:	6ba3      	ldr	r3, [r4, #56]	; 0x38
 8000c96:	2001      	movs	r0, #1
 8000c98:	4393      	bics	r3, r2
 8000c9a:	001a      	movs	r2, r3
 8000c9c:	2310      	movs	r3, #16
 8000c9e:	4313      	orrs	r3, r2
 8000ca0:	63a3      	str	r3, [r4, #56]	; 0x38
 8000ca2:	2300      	movs	r3, #0
 8000ca4:	7033      	strb	r3, [r6, #0]
 8000ca6:	bdf8      	pop	{r3, r4, r5, r6, r7, pc}
 8000ca8:	2320      	movs	r3, #32
 8000caa:	6ba2      	ldr	r2, [r4, #56]	; 0x38
 8000cac:	2001      	movs	r0, #1
 8000cae:	4313      	orrs	r3, r2
 8000cb0:	63a3      	str	r3, [r4, #56]	; 0x38
 8000cb2:	e7e6      	b.n	8000c82 <HAL_ADCEx_Calibration_Start+0x72>
 8000cb4:	fffffefd 	.word	0xfffffefd

08000cb8 <HAL_NVIC_SetPriority>:
 8000cb8:	b530      	push	{r4, r5, lr}
 8000cba:	25ff      	movs	r5, #255	; 0xff
 8000cbc:	2403      	movs	r4, #3
 8000cbe:	002a      	movs	r2, r5
 8000cc0:	b2c3      	uxtb	r3, r0
 8000cc2:	401c      	ands	r4, r3
 8000cc4:	00e4      	lsls	r4, r4, #3
 8000cc6:	40a2      	lsls	r2, r4
 8000cc8:	0189      	lsls	r1, r1, #6
 8000cca:	4029      	ands	r1, r5
 8000ccc:	43d2      	mvns	r2, r2
 8000cce:	40a1      	lsls	r1, r4
 8000cd0:	2800      	cmp	r0, #0
 8000cd2:	db0a      	blt.n	8000cea <HAL_NVIC_SetPriority+0x32>
 8000cd4:	24c0      	movs	r4, #192	; 0xc0
 8000cd6:	4b0b      	ldr	r3, [pc, #44]	; (8000d04 <HAL_NVIC_SetPriority+0x4c>)
 8000cd8:	0880      	lsrs	r0, r0, #2
 8000cda:	0080      	lsls	r0, r0, #2
 8000cdc:	18c0      	adds	r0, r0, r3
 8000cde:	00a4      	lsls	r4, r4, #2
 8000ce0:	5903      	ldr	r3, [r0, r4]
 8000ce2:	401a      	ands	r2, r3
 8000ce4:	4311      	orrs	r1, r2
 8000ce6:	5101      	str	r1, [r0, r4]
 8000ce8:	bd30      	pop	{r4, r5, pc}
 8000cea:	200f      	movs	r0, #15
 8000cec:	4003      	ands	r3, r0
 8000cee:	3b08      	subs	r3, #8
 8000cf0:	4805      	ldr	r0, [pc, #20]	; (8000d08 <HAL_NVIC_SetPriority+0x50>)
 8000cf2:	089b      	lsrs	r3, r3, #2
 8000cf4:	009b      	lsls	r3, r3, #2
 8000cf6:	181b      	adds	r3, r3, r0
 8000cf8:	69d8      	ldr	r0, [r3, #28]
 8000cfa:	4002      	ands	r2, r0
 8000cfc:	4311      	orrs	r1, r2
 8000cfe:	61d9      	str	r1, [r3, #28]
 8000d00:	e7f2      	b.n	8000ce8 <HAL_NVIC_SetPriority+0x30>
 8000d02:	46c0      	nop			; (mov r8, r8)
 8000d04:	e000e100 	.word	0xe000e100
 8000d08:	e000ed00 	.word	0xe000ed00

08000d0c <HAL_NVIC_EnableIRQ>:
 8000d0c:	2800      	cmp	r0, #0
 8000d0e:	db05      	blt.n	8000d1c <HAL_NVIC_EnableIRQ+0x10>
 8000d10:	231f      	movs	r3, #31
 8000d12:	4018      	ands	r0, r3
 8000d14:	3b1e      	subs	r3, #30
 8000d16:	4083      	lsls	r3, r0
 8000d18:	4a01      	ldr	r2, [pc, #4]	; (8000d20 <HAL_NVIC_EnableIRQ+0x14>)
 8000d1a:	6013      	str	r3, [r2, #0]
 8000d1c:	4770      	bx	lr
 8000d1e:	46c0      	nop			; (mov r8, r8)
 8000d20:	e000e100 	.word	0xe000e100

08000d24 <HAL_SYSTICK_Config>:
 8000d24:	4a09      	ldr	r2, [pc, #36]	; (8000d4c <HAL_SYSTICK_Config+0x28>)
 8000d26:	1e43      	subs	r3, r0, #1
 8000d28:	2001      	movs	r0, #1
 8000d2a:	4293      	cmp	r3, r2
 8000d2c:	d80d      	bhi.n	8000d4a <HAL_SYSTICK_Config+0x26>
 8000d2e:	21c0      	movs	r1, #192	; 0xc0
 8000d30:	4a07      	ldr	r2, [pc, #28]	; (8000d50 <HAL_SYSTICK_Config+0x2c>)
 8000d32:	4808      	ldr	r0, [pc, #32]	; (8000d54 <HAL_SYSTICK_Config+0x30>)
 8000d34:	6053      	str	r3, [r2, #4]
 8000d36:	6a03      	ldr	r3, [r0, #32]
 8000d38:	0609      	lsls	r1, r1, #24
 8000d3a:	021b      	lsls	r3, r3, #8
 8000d3c:	0a1b      	lsrs	r3, r3, #8
 8000d3e:	430b      	orrs	r3, r1
 8000d40:	6203      	str	r3, [r0, #32]
 8000d42:	2000      	movs	r0, #0
 8000d44:	2307      	movs	r3, #7
 8000d46:	6090      	str	r0, [r2, #8]
 8000d48:	6013      	str	r3, [r2, #0]
 8000d4a:	4770      	bx	lr
 8000d4c:	00ffffff 	.word	0x00ffffff
 8000d50:	e000e010 	.word	0xe000e010
 8000d54:	e000ed00 	.word	0xe000ed00

08000d58 <HAL_DMA_Init>:
 8000d58:	b570      	push	{r4, r5, r6, lr}
 8000d5a:	0004      	movs	r4, r0
 8000d5c:	2501      	movs	r5, #1
 8000d5e:	2800      	cmp	r0, #0
 8000d60:	d024      	beq.n	8000dac <HAL_DMA_Init+0x54>
 8000d62:	2302      	movs	r3, #2
 8000d64:	1c86      	adds	r6, r0, #2
 8000d66:	6800      	ldr	r0, [r0, #0]
 8000d68:	77f3      	strb	r3, [r6, #31]
 8000d6a:	6802      	ldr	r2, [r0, #0]
 8000d6c:	4b10      	ldr	r3, [pc, #64]	; (8000db0 <HAL_DMA_Init+0x58>)
 8000d6e:	68a1      	ldr	r1, [r4, #8]
 8000d70:	401a      	ands	r2, r3
 8000d72:	6863      	ldr	r3, [r4, #4]
 8000d74:	430b      	orrs	r3, r1
 8000d76:	68e1      	ldr	r1, [r4, #12]
 8000d78:	430b      	orrs	r3, r1
 8000d7a:	6921      	ldr	r1, [r4, #16]
 8000d7c:	430b      	orrs	r3, r1
 8000d7e:	6961      	ldr	r1, [r4, #20]
 8000d80:	430b      	orrs	r3, r1
 8000d82:	69a1      	ldr	r1, [r4, #24]
 8000d84:	430b      	orrs	r3, r1
 8000d86:	69e1      	ldr	r1, [r4, #28]
 8000d88:	430b      	orrs	r3, r1
 8000d8a:	4313      	orrs	r3, r2
 8000d8c:	6003      	str	r3, [r0, #0]
 8000d8e:	4b09      	ldr	r3, [pc, #36]	; (8000db4 <HAL_DMA_Init+0x5c>)
 8000d90:	2114      	movs	r1, #20
 8000d92:	18c0      	adds	r0, r0, r3
 8000d94:	f7ff f9c2 	bl	800011c <__udivsi3>
 8000d98:	4b07      	ldr	r3, [pc, #28]	; (8000db8 <HAL_DMA_Init+0x60>)
 8000d9a:	0080      	lsls	r0, r0, #2
 8000d9c:	63e3      	str	r3, [r4, #60]	; 0x3c
 8000d9e:	2300      	movs	r3, #0
 8000da0:	6420      	str	r0, [r4, #64]	; 0x40
 8000da2:	63a3      	str	r3, [r4, #56]	; 0x38
 8000da4:	77f5      	strb	r5, [r6, #31]
 8000da6:	1964      	adds	r4, r4, r5
 8000da8:	001d      	movs	r5, r3
 8000daa:	77e3      	strb	r3, [r4, #31]
 8000dac:	0028      	movs	r0, r5
 8000dae:	bd70      	pop	{r4, r5, r6, pc}
 8000db0:	ffffc00f 	.word	0xffffc00f
 8000db4:	bffdfff8 	.word	0xbffdfff8
 8000db8:	40020000 	.word	0x40020000

08000dbc <HAL_DMA_Start_IT>:
 8000dbc:	b5f0      	push	{r4, r5, r6, r7, lr}
 8000dbe:	1c44      	adds	r4, r0, #1
 8000dc0:	7fe6      	ldrb	r6, [r4, #31]
 8000dc2:	0005      	movs	r5, r0
 8000dc4:	2002      	movs	r0, #2
 8000dc6:	2e01      	cmp	r6, #1
 8000dc8:	d027      	beq.n	8000e1a <HAL_DMA_Start_IT+0x5e>
 8000dca:	3801      	subs	r0, #1
 8000dcc:	77e0      	strb	r0, [r4, #31]
 8000dce:	1ca8      	adds	r0, r5, #2
 8000dd0:	7fc6      	ldrb	r6, [r0, #31]
 8000dd2:	4684      	mov	ip, r0
 8000dd4:	b2f6      	uxtb	r6, r6
 8000dd6:	2002      	movs	r0, #2
 8000dd8:	2700      	movs	r7, #0
 8000dda:	2e01      	cmp	r6, #1
 8000ddc:	d128      	bne.n	8000e30 <HAL_DMA_Start_IT+0x74>
 8000dde:	4664      	mov	r4, ip
 8000de0:	77e0      	strb	r0, [r4, #31]
 8000de2:	682c      	ldr	r4, [r5, #0]
 8000de4:	63af      	str	r7, [r5, #56]	; 0x38
 8000de6:	6820      	ldr	r0, [r4, #0]
 8000de8:	6c2f      	ldr	r7, [r5, #64]	; 0x40
 8000dea:	43b0      	bics	r0, r6
 8000dec:	40be      	lsls	r6, r7
 8000dee:	6020      	str	r0, [r4, #0]
 8000df0:	6be8      	ldr	r0, [r5, #60]	; 0x3c
 8000df2:	6046      	str	r6, [r0, #4]
 8000df4:	6063      	str	r3, [r4, #4]
 8000df6:	686b      	ldr	r3, [r5, #4]
 8000df8:	6828      	ldr	r0, [r5, #0]
 8000dfa:	2b10      	cmp	r3, #16
 8000dfc:	d10e      	bne.n	8000e1c <HAL_DMA_Start_IT+0x60>
 8000dfe:	60a2      	str	r2, [r4, #8]
 8000e00:	60e1      	str	r1, [r4, #12]
 8000e02:	6aeb      	ldr	r3, [r5, #44]	; 0x2c
 8000e04:	6822      	ldr	r2, [r4, #0]
 8000e06:	2b00      	cmp	r3, #0
 8000e08:	d00b      	beq.n	8000e22 <HAL_DMA_Start_IT+0x66>
 8000e0a:	230e      	movs	r3, #14
 8000e0c:	4313      	orrs	r3, r2
 8000e0e:	6023      	str	r3, [r4, #0]
 8000e10:	2301      	movs	r3, #1
 8000e12:	6802      	ldr	r2, [r0, #0]
 8000e14:	4313      	orrs	r3, r2
 8000e16:	6003      	str	r3, [r0, #0]
 8000e18:	2000      	movs	r0, #0
 8000e1a:	bdf0      	pop	{r4, r5, r6, r7, pc}
 8000e1c:	60a1      	str	r1, [r4, #8]
 8000e1e:	60e2      	str	r2, [r4, #12]
 8000e20:	e7ef      	b.n	8000e02 <HAL_DMA_Start_IT+0x46>
 8000e22:	230a      	movs	r3, #10
 8000e24:	4313      	orrs	r3, r2
 8000e26:	2204      	movs	r2, #4
 8000e28:	6023      	str	r3, [r4, #0]
 8000e2a:	6823      	ldr	r3, [r4, #0]
 8000e2c:	4393      	bics	r3, r2
 8000e2e:	e7ee      	b.n	8000e0e <HAL_DMA_Start_IT+0x52>
 8000e30:	77e7      	strb	r7, [r4, #31]
 8000e32:	e7f2      	b.n	8000e1a <HAL_DMA_Start_IT+0x5e>

08000e34 <HAL_DMA_IRQHandler>:
 8000e34:	b5f8      	push	{r3, r4, r5, r6, r7, lr}
 8000e36:	2704      	movs	r7, #4
 8000e38:	003e      	movs	r6, r7
 8000e3a:	6c01      	ldr	r1, [r0, #64]	; 0x40
 8000e3c:	6bc2      	ldr	r2, [r0, #60]	; 0x3c
 8000e3e:	408e      	lsls	r6, r1
 8000e40:	6815      	ldr	r5, [r2, #0]
 8000e42:	6803      	ldr	r3, [r0, #0]
 8000e44:	681c      	ldr	r4, [r3, #0]
 8000e46:	4235      	tst	r5, r6
 8000e48:	d00d      	beq.n	8000e66 <HAL_DMA_IRQHandler+0x32>
 8000e4a:	423c      	tst	r4, r7
 8000e4c:	d00b      	beq.n	8000e66 <HAL_DMA_IRQHandler+0x32>
 8000e4e:	6819      	ldr	r1, [r3, #0]
 8000e50:	0689      	lsls	r1, r1, #26
 8000e52:	d402      	bmi.n	8000e5a <HAL_DMA_IRQHandler+0x26>
 8000e54:	6819      	ldr	r1, [r3, #0]
 8000e56:	43b9      	bics	r1, r7
 8000e58:	6019      	str	r1, [r3, #0]
 8000e5a:	6ac3      	ldr	r3, [r0, #44]	; 0x2c
 8000e5c:	6056      	str	r6, [r2, #4]
 8000e5e:	2b00      	cmp	r3, #0
 8000e60:	d019      	beq.n	8000e96 <HAL_DMA_IRQHandler+0x62>
 8000e62:	4798      	blx	r3
 8000e64:	e017      	b.n	8000e96 <HAL_DMA_IRQHandler+0x62>
 8000e66:	2702      	movs	r7, #2
 8000e68:	003e      	movs	r6, r7
 8000e6a:	408e      	lsls	r6, r1
 8000e6c:	4235      	tst	r5, r6
 8000e6e:	d013      	beq.n	8000e98 <HAL_DMA_IRQHandler+0x64>
 8000e70:	423c      	tst	r4, r7
 8000e72:	d011      	beq.n	8000e98 <HAL_DMA_IRQHandler+0x64>
 8000e74:	6819      	ldr	r1, [r3, #0]
 8000e76:	0689      	lsls	r1, r1, #26
 8000e78:	d406      	bmi.n	8000e88 <HAL_DMA_IRQHandler+0x54>
 8000e7a:	240a      	movs	r4, #10
 8000e7c:	6819      	ldr	r1, [r3, #0]
 8000e7e:	43a1      	bics	r1, r4
 8000e80:	6019      	str	r1, [r3, #0]
 8000e82:	2101      	movs	r1, #1
 8000e84:	19c3      	adds	r3, r0, r7
 8000e86:	77d9      	strb	r1, [r3, #31]
 8000e88:	6056      	str	r6, [r2, #4]
 8000e8a:	2200      	movs	r2, #0
 8000e8c:	1c43      	adds	r3, r0, #1
 8000e8e:	77da      	strb	r2, [r3, #31]
 8000e90:	6a83      	ldr	r3, [r0, #40]	; 0x28
 8000e92:	4293      	cmp	r3, r2
 8000e94:	d1e5      	bne.n	8000e62 <HAL_DMA_IRQHandler+0x2e>
 8000e96:	bdf8      	pop	{r3, r4, r5, r6, r7, pc}
 8000e98:	2608      	movs	r6, #8
 8000e9a:	0037      	movs	r7, r6
 8000e9c:	408f      	lsls	r7, r1
 8000e9e:	423d      	tst	r5, r7
 8000ea0:	d0f9      	beq.n	8000e96 <HAL_DMA_IRQHandler+0x62>
 8000ea2:	4234      	tst	r4, r6
 8000ea4:	d0f7      	beq.n	8000e96 <HAL_DMA_IRQHandler+0x62>
 8000ea6:	250e      	movs	r5, #14
 8000ea8:	681c      	ldr	r4, [r3, #0]
 8000eaa:	43ac      	bics	r4, r5
 8000eac:	601c      	str	r4, [r3, #0]
 8000eae:	2301      	movs	r3, #1
 8000eb0:	001c      	movs	r4, r3
 8000eb2:	408c      	lsls	r4, r1
 8000eb4:	6054      	str	r4, [r2, #4]
 8000eb6:	1c82      	adds	r2, r0, #2
 8000eb8:	6383      	str	r3, [r0, #56]	; 0x38
 8000eba:	77d3      	strb	r3, [r2, #31]
 8000ebc:	2200      	movs	r2, #0
 8000ebe:	18c3      	adds	r3, r0, r3
 8000ec0:	77da      	strb	r2, [r3, #31]
 8000ec2:	6b03      	ldr	r3, [r0, #48]	; 0x30
 8000ec4:	e7e5      	b.n	8000e92 <HAL_DMA_IRQHandler+0x5e>
	...

08000ec8 <HAL_GPIO_Init>:
 8000ec8:	b5f0      	push	{r4, r5, r6, r7, lr}
 8000eca:	680b      	ldr	r3, [r1, #0]
 8000ecc:	b087      	sub	sp, #28
 8000ece:	9303      	str	r3, [sp, #12]
 8000ed0:	2300      	movs	r3, #0
 8000ed2:	9a03      	ldr	r2, [sp, #12]
 8000ed4:	40da      	lsrs	r2, r3
 8000ed6:	d101      	bne.n	8000edc <HAL_GPIO_Init+0x14>
 8000ed8:	b007      	add	sp, #28
 8000eda:	bdf0      	pop	{r4, r5, r6, r7, pc}
 8000edc:	2201      	movs	r2, #1
 8000ede:	409a      	lsls	r2, r3
 8000ee0:	4694      	mov	ip, r2
 8000ee2:	4664      	mov	r4, ip
 8000ee4:	9a03      	ldr	r2, [sp, #12]
 8000ee6:	4022      	ands	r2, r4
 8000ee8:	9201      	str	r2, [sp, #4]
 8000eea:	d100      	bne.n	8000eee <HAL_GPIO_Init+0x26>
 8000eec:	e092      	b.n	8001014 <HAL_GPIO_Init+0x14c>
 8000eee:	2503      	movs	r5, #3
 8000ef0:	684a      	ldr	r2, [r1, #4]
 8000ef2:	005e      	lsls	r6, r3, #1
 8000ef4:	0017      	movs	r7, r2
 8000ef6:	9200      	str	r2, [sp, #0]
 8000ef8:	40b5      	lsls	r5, r6
 8000efa:	2210      	movs	r2, #16
 8000efc:	4397      	bics	r7, r2
 8000efe:	43ea      	mvns	r2, r5
 8000f00:	9202      	str	r2, [sp, #8]
 8000f02:	1e7a      	subs	r2, r7, #1
 8000f04:	2a01      	cmp	r2, #1
 8000f06:	d810      	bhi.n	8000f2a <HAL_GPIO_Init+0x62>
 8000f08:	6884      	ldr	r4, [r0, #8]
 8000f0a:	9a02      	ldr	r2, [sp, #8]
 8000f0c:	2501      	movs	r5, #1
 8000f0e:	4014      	ands	r4, r2
 8000f10:	68ca      	ldr	r2, [r1, #12]
 8000f12:	40b2      	lsls	r2, r6
 8000f14:	4322      	orrs	r2, r4
 8000f16:	6082      	str	r2, [r0, #8]
 8000f18:	4662      	mov	r2, ip
 8000f1a:	6844      	ldr	r4, [r0, #4]
 8000f1c:	4394      	bics	r4, r2
 8000f1e:	9a00      	ldr	r2, [sp, #0]
 8000f20:	0912      	lsrs	r2, r2, #4
 8000f22:	402a      	ands	r2, r5
 8000f24:	409a      	lsls	r2, r3
 8000f26:	4322      	orrs	r2, r4
 8000f28:	6042      	str	r2, [r0, #4]
 8000f2a:	68c4      	ldr	r4, [r0, #12]
 8000f2c:	9a02      	ldr	r2, [sp, #8]
 8000f2e:	4014      	ands	r4, r2
 8000f30:	688a      	ldr	r2, [r1, #8]
 8000f32:	40b2      	lsls	r2, r6
 8000f34:	4322      	orrs	r2, r4
 8000f36:	60c2      	str	r2, [r0, #12]
 8000f38:	2f02      	cmp	r7, #2
 8000f3a:	d10d      	bne.n	8000f58 <HAL_GPIO_Init+0x90>
 8000f3c:	2407      	movs	r4, #7
 8000f3e:	250f      	movs	r5, #15
 8000f40:	401c      	ands	r4, r3
 8000f42:	00a4      	lsls	r4, r4, #2
 8000f44:	40a5      	lsls	r5, r4
 8000f46:	08da      	lsrs	r2, r3, #3
 8000f48:	0092      	lsls	r2, r2, #2
 8000f4a:	1882      	adds	r2, r0, r2
 8000f4c:	6a17      	ldr	r7, [r2, #32]
 8000f4e:	43af      	bics	r7, r5
 8000f50:	690d      	ldr	r5, [r1, #16]
 8000f52:	40a5      	lsls	r5, r4
 8000f54:	432f      	orrs	r7, r5
 8000f56:	6217      	str	r7, [r2, #32]
 8000f58:	2403      	movs	r4, #3
 8000f5a:	6802      	ldr	r2, [r0, #0]
 8000f5c:	9d02      	ldr	r5, [sp, #8]
 8000f5e:	4015      	ands	r5, r2
 8000f60:	9a00      	ldr	r2, [sp, #0]
 8000f62:	4022      	ands	r2, r4
 8000f64:	40b2      	lsls	r2, r6
 8000f66:	2480      	movs	r4, #128	; 0x80
 8000f68:	4315      	orrs	r5, r2
 8000f6a:	9a00      	ldr	r2, [sp, #0]
 8000f6c:	0564      	lsls	r4, r4, #21
 8000f6e:	6005      	str	r5, [r0, #0]
 8000f70:	4222      	tst	r2, r4
 8000f72:	d04f      	beq.n	8001014 <HAL_GPIO_Init+0x14c>
 8000f74:	2501      	movs	r5, #1
 8000f76:	270f      	movs	r7, #15
 8000f78:	4a27      	ldr	r2, [pc, #156]	; (8001018 <HAL_GPIO_Init+0x150>)
 8000f7a:	6994      	ldr	r4, [r2, #24]
 8000f7c:	432c      	orrs	r4, r5
 8000f7e:	6194      	str	r4, [r2, #24]
 8000f80:	6992      	ldr	r2, [r2, #24]
 8000f82:	089c      	lsrs	r4, r3, #2
 8000f84:	402a      	ands	r2, r5
 8000f86:	3502      	adds	r5, #2
 8000f88:	401d      	ands	r5, r3
 8000f8a:	00ad      	lsls	r5, r5, #2
 8000f8c:	40af      	lsls	r7, r5
 8000f8e:	9205      	str	r2, [sp, #20]
 8000f90:	9a05      	ldr	r2, [sp, #20]
 8000f92:	4a22      	ldr	r2, [pc, #136]	; (800101c <HAL_GPIO_Init+0x154>)
 8000f94:	00a4      	lsls	r4, r4, #2
 8000f96:	18a4      	adds	r4, r4, r2
 8000f98:	68a6      	ldr	r6, [r4, #8]
 8000f9a:	2200      	movs	r2, #0
 8000f9c:	43be      	bics	r6, r7
 8000f9e:	2790      	movs	r7, #144	; 0x90
 8000fa0:	05ff      	lsls	r7, r7, #23
 8000fa2:	42b8      	cmp	r0, r7
 8000fa4:	d00c      	beq.n	8000fc0 <HAL_GPIO_Init+0xf8>
 8000fa6:	4f1e      	ldr	r7, [pc, #120]	; (8001020 <HAL_GPIO_Init+0x158>)
 8000fa8:	3201      	adds	r2, #1
 8000faa:	42b8      	cmp	r0, r7
 8000fac:	d008      	beq.n	8000fc0 <HAL_GPIO_Init+0xf8>
 8000fae:	4f1d      	ldr	r7, [pc, #116]	; (8001024 <HAL_GPIO_Init+0x15c>)
 8000fb0:	3201      	adds	r2, #1
 8000fb2:	42b8      	cmp	r0, r7
 8000fb4:	d004      	beq.n	8000fc0 <HAL_GPIO_Init+0xf8>
 8000fb6:	4f1c      	ldr	r7, [pc, #112]	; (8001028 <HAL_GPIO_Init+0x160>)
 8000fb8:	3203      	adds	r2, #3
 8000fba:	42b8      	cmp	r0, r7
 8000fbc:	d100      	bne.n	8000fc0 <HAL_GPIO_Init+0xf8>
 8000fbe:	3a02      	subs	r2, #2
 8000fc0:	40aa      	lsls	r2, r5
 8000fc2:	4332      	orrs	r2, r6
 8000fc4:	60a2      	str	r2, [r4, #8]
 8000fc6:	4a19      	ldr	r2, [pc, #100]	; (800102c <HAL_GPIO_Init+0x164>)
 8000fc8:	9c01      	ldr	r4, [sp, #4]
 8000fca:	6816      	ldr	r6, [r2, #0]
 8000fcc:	9d01      	ldr	r5, [sp, #4]
 8000fce:	9f00      	ldr	r7, [sp, #0]
 8000fd0:	43e4      	mvns	r4, r4
 8000fd2:	4335      	orrs	r5, r6
 8000fd4:	03ff      	lsls	r7, r7, #15
 8000fd6:	d401      	bmi.n	8000fdc <HAL_GPIO_Init+0x114>
 8000fd8:	0035      	movs	r5, r6
 8000fda:	4025      	ands	r5, r4
 8000fdc:	6015      	str	r5, [r2, #0]
 8000fde:	6856      	ldr	r6, [r2, #4]
 8000fe0:	9d01      	ldr	r5, [sp, #4]
 8000fe2:	9f00      	ldr	r7, [sp, #0]
 8000fe4:	4335      	orrs	r5, r6
 8000fe6:	03bf      	lsls	r7, r7, #14
 8000fe8:	d401      	bmi.n	8000fee <HAL_GPIO_Init+0x126>
 8000fea:	0035      	movs	r5, r6
 8000fec:	4025      	ands	r5, r4
 8000fee:	6055      	str	r5, [r2, #4]
 8000ff0:	6896      	ldr	r6, [r2, #8]
 8000ff2:	9d01      	ldr	r5, [sp, #4]
 8000ff4:	9f00      	ldr	r7, [sp, #0]
 8000ff6:	4335      	orrs	r5, r6
 8000ff8:	02ff      	lsls	r7, r7, #11
 8000ffa:	d401      	bmi.n	8001000 <HAL_GPIO_Init+0x138>
 8000ffc:	0035      	movs	r5, r6
 8000ffe:	4025      	ands	r5, r4
 8001000:	6095      	str	r5, [r2, #8]
 8001002:	68d5      	ldr	r5, [r2, #12]
 8001004:	9e01      	ldr	r6, [sp, #4]
 8001006:	9f00      	ldr	r7, [sp, #0]
 8001008:	432e      	orrs	r6, r5
 800100a:	02bf      	lsls	r7, r7, #10
 800100c:	d401      	bmi.n	8001012 <HAL_GPIO_Init+0x14a>
 800100e:	4025      	ands	r5, r4
 8001010:	002e      	movs	r6, r5
 8001012:	60d6      	str	r6, [r2, #12]
 8001014:	3301      	adds	r3, #1
 8001016:	e75c      	b.n	8000ed2 <HAL_GPIO_Init+0xa>
 8001018:	40021000 	.word	0x40021000
 800101c:	40010000 	.word	0x40010000
 8001020:	48000400 	.word	0x48000400
 8001024:	48000800 	.word	0x48000800
 8001028:	48000c00 	.word	0x48000c00
 800102c:	40010400 	.word	0x40010400

08001030 <HAL_RCC_OscConfig>:
 8001030:	b5f0      	push	{r4, r5, r6, r7, lr}
 8001032:	0004      	movs	r4, r0
 8001034:	b085      	sub	sp, #20
 8001036:	2800      	cmp	r0, #0
 8001038:	d102      	bne.n	8001040 <HAL_RCC_OscConfig+0x10>
 800103a:	2001      	movs	r0, #1
 800103c:	b005      	add	sp, #20
 800103e:	bdf0      	pop	{r4, r5, r6, r7, pc}
 8001040:	6803      	ldr	r3, [r0, #0]
 8001042:	07db      	lsls	r3, r3, #31
 8001044:	d42e      	bmi.n	80010a4 <HAL_RCC_OscConfig+0x74>
 8001046:	6823      	ldr	r3, [r4, #0]
 8001048:	079b      	lsls	r3, r3, #30
 800104a:	d47e      	bmi.n	800114a <HAL_RCC_OscConfig+0x11a>
 800104c:	6823      	ldr	r3, [r4, #0]
 800104e:	071b      	lsls	r3, r3, #28
 8001050:	d500      	bpl.n	8001054 <HAL_RCC_OscConfig+0x24>
 8001052:	e0ba      	b.n	80011ca <HAL_RCC_OscConfig+0x19a>
 8001054:	6823      	ldr	r3, [r4, #0]
 8001056:	075b      	lsls	r3, r3, #29
 8001058:	d500      	bpl.n	800105c <HAL_RCC_OscConfig+0x2c>
 800105a:	e0dd      	b.n	8001218 <HAL_RCC_OscConfig+0x1e8>
 800105c:	6823      	ldr	r3, [r4, #0]
 800105e:	06db      	lsls	r3, r3, #27
 8001060:	d51a      	bpl.n	8001098 <HAL_RCC_OscConfig+0x68>
 8001062:	6962      	ldr	r2, [r4, #20]
 8001064:	4db4      	ldr	r5, [pc, #720]	; (8001338 <HAL_RCC_OscConfig+0x308>)
 8001066:	2304      	movs	r3, #4
 8001068:	2a01      	cmp	r2, #1
 800106a:	d000      	beq.n	800106e <HAL_RCC_OscConfig+0x3e>
 800106c:	e149      	b.n	8001302 <HAL_RCC_OscConfig+0x2d2>
 800106e:	6b69      	ldr	r1, [r5, #52]	; 0x34
 8001070:	2602      	movs	r6, #2
 8001072:	430b      	orrs	r3, r1
 8001074:	636b      	str	r3, [r5, #52]	; 0x34
 8001076:	6b6b      	ldr	r3, [r5, #52]	; 0x34
 8001078:	431a      	orrs	r2, r3
 800107a:	636a      	str	r2, [r5, #52]	; 0x34
 800107c:	f7ff fbba 	bl	80007f4 <HAL_GetTick>
 8001080:	0007      	movs	r7, r0
 8001082:	6b6b      	ldr	r3, [r5, #52]	; 0x34
 8001084:	4233      	tst	r3, r6
 8001086:	d100      	bne.n	800108a <HAL_RCC_OscConfig+0x5a>
 8001088:	e134      	b.n	80012f4 <HAL_RCC_OscConfig+0x2c4>
 800108a:	21f8      	movs	r1, #248	; 0xf8
 800108c:	6b6a      	ldr	r2, [r5, #52]	; 0x34
 800108e:	69a3      	ldr	r3, [r4, #24]
 8001090:	438a      	bics	r2, r1
 8001092:	00db      	lsls	r3, r3, #3
 8001094:	4313      	orrs	r3, r2
 8001096:	636b      	str	r3, [r5, #52]	; 0x34
 8001098:	6a23      	ldr	r3, [r4, #32]
 800109a:	2b00      	cmp	r3, #0
 800109c:	d000      	beq.n	80010a0 <HAL_RCC_OscConfig+0x70>
 800109e:	e157      	b.n	8001350 <HAL_RCC_OscConfig+0x320>
 80010a0:	2000      	movs	r0, #0
 80010a2:	e7cb      	b.n	800103c <HAL_RCC_OscConfig+0xc>
 80010a4:	210c      	movs	r1, #12
 80010a6:	4da4      	ldr	r5, [pc, #656]	; (8001338 <HAL_RCC_OscConfig+0x308>)
 80010a8:	686a      	ldr	r2, [r5, #4]
 80010aa:	400a      	ands	r2, r1
 80010ac:	2a04      	cmp	r2, #4
 80010ae:	d006      	beq.n	80010be <HAL_RCC_OscConfig+0x8e>
 80010b0:	686b      	ldr	r3, [r5, #4]
 80010b2:	400b      	ands	r3, r1
 80010b4:	2b08      	cmp	r3, #8
 80010b6:	d109      	bne.n	80010cc <HAL_RCC_OscConfig+0x9c>
 80010b8:	686b      	ldr	r3, [r5, #4]
 80010ba:	03db      	lsls	r3, r3, #15
 80010bc:	d506      	bpl.n	80010cc <HAL_RCC_OscConfig+0x9c>
 80010be:	682b      	ldr	r3, [r5, #0]
 80010c0:	039b      	lsls	r3, r3, #14
 80010c2:	d5c0      	bpl.n	8001046 <HAL_RCC_OscConfig+0x16>
 80010c4:	6863      	ldr	r3, [r4, #4]
 80010c6:	2b00      	cmp	r3, #0
 80010c8:	d1bd      	bne.n	8001046 <HAL_RCC_OscConfig+0x16>
 80010ca:	e7b6      	b.n	800103a <HAL_RCC_OscConfig+0xa>
 80010cc:	6863      	ldr	r3, [r4, #4]
 80010ce:	2b01      	cmp	r3, #1
 80010d0:	d113      	bne.n	80010fa <HAL_RCC_OscConfig+0xca>
 80010d2:	2380      	movs	r3, #128	; 0x80
 80010d4:	682a      	ldr	r2, [r5, #0]
 80010d6:	025b      	lsls	r3, r3, #9
 80010d8:	4313      	orrs	r3, r2
 80010da:	602b      	str	r3, [r5, #0]
 80010dc:	f7ff fb8a 	bl	80007f4 <HAL_GetTick>
 80010e0:	2680      	movs	r6, #128	; 0x80
 80010e2:	0007      	movs	r7, r0
 80010e4:	02b6      	lsls	r6, r6, #10
 80010e6:	682b      	ldr	r3, [r5, #0]
 80010e8:	4233      	tst	r3, r6
 80010ea:	d1ac      	bne.n	8001046 <HAL_RCC_OscConfig+0x16>
 80010ec:	f7ff fb82 	bl	80007f4 <HAL_GetTick>
 80010f0:	1bc0      	subs	r0, r0, r7
 80010f2:	2864      	cmp	r0, #100	; 0x64
 80010f4:	d9f7      	bls.n	80010e6 <HAL_RCC_OscConfig+0xb6>
 80010f6:	2003      	movs	r0, #3
 80010f8:	e7a0      	b.n	800103c <HAL_RCC_OscConfig+0xc>
 80010fa:	2b00      	cmp	r3, #0
 80010fc:	d115      	bne.n	800112a <HAL_RCC_OscConfig+0xfa>
 80010fe:	682b      	ldr	r3, [r5, #0]
 8001100:	4a8e      	ldr	r2, [pc, #568]	; (800133c <HAL_RCC_OscConfig+0x30c>)
 8001102:	2680      	movs	r6, #128	; 0x80
 8001104:	4013      	ands	r3, r2
 8001106:	602b      	str	r3, [r5, #0]
 8001108:	682b      	ldr	r3, [r5, #0]
 800110a:	4a8d      	ldr	r2, [pc, #564]	; (8001340 <HAL_RCC_OscConfig+0x310>)
 800110c:	02b6      	lsls	r6, r6, #10
 800110e:	4013      	ands	r3, r2
 8001110:	602b      	str	r3, [r5, #0]
 8001112:	f7ff fb6f 	bl	80007f4 <HAL_GetTick>
 8001116:	0007      	movs	r7, r0
 8001118:	682b      	ldr	r3, [r5, #0]
 800111a:	4233      	tst	r3, r6
 800111c:	d093      	beq.n	8001046 <HAL_RCC_OscConfig+0x16>
 800111e:	f7ff fb69 	bl	80007f4 <HAL_GetTick>
 8001122:	1bc0      	subs	r0, r0, r7
 8001124:	2864      	cmp	r0, #100	; 0x64
 8001126:	d9f7      	bls.n	8001118 <HAL_RCC_OscConfig+0xe8>
 8001128:	e7e5      	b.n	80010f6 <HAL_RCC_OscConfig+0xc6>
 800112a:	2b05      	cmp	r3, #5
 800112c:	d105      	bne.n	800113a <HAL_RCC_OscConfig+0x10a>
 800112e:	2380      	movs	r3, #128	; 0x80
 8001130:	682a      	ldr	r2, [r5, #0]
 8001132:	02db      	lsls	r3, r3, #11
 8001134:	4313      	orrs	r3, r2
 8001136:	602b      	str	r3, [r5, #0]
 8001138:	e7cb      	b.n	80010d2 <HAL_RCC_OscConfig+0xa2>
 800113a:	682b      	ldr	r3, [r5, #0]
 800113c:	4a7f      	ldr	r2, [pc, #508]	; (800133c <HAL_RCC_OscConfig+0x30c>)
 800113e:	4013      	ands	r3, r2
 8001140:	602b      	str	r3, [r5, #0]
 8001142:	682b      	ldr	r3, [r5, #0]
 8001144:	4a7e      	ldr	r2, [pc, #504]	; (8001340 <HAL_RCC_OscConfig+0x310>)
 8001146:	4013      	ands	r3, r2
 8001148:	e7c7      	b.n	80010da <HAL_RCC_OscConfig+0xaa>
 800114a:	220c      	movs	r2, #12
 800114c:	4d7a      	ldr	r5, [pc, #488]	; (8001338 <HAL_RCC_OscConfig+0x308>)
 800114e:	686b      	ldr	r3, [r5, #4]
 8001150:	4213      	tst	r3, r2
 8001152:	d006      	beq.n	8001162 <HAL_RCC_OscConfig+0x132>
 8001154:	686b      	ldr	r3, [r5, #4]
 8001156:	4013      	ands	r3, r2
 8001158:	2b08      	cmp	r3, #8
 800115a:	d111      	bne.n	8001180 <HAL_RCC_OscConfig+0x150>
 800115c:	686b      	ldr	r3, [r5, #4]
 800115e:	03db      	lsls	r3, r3, #15
 8001160:	d40e      	bmi.n	8001180 <HAL_RCC_OscConfig+0x150>
 8001162:	682b      	ldr	r3, [r5, #0]
 8001164:	079b      	lsls	r3, r3, #30
 8001166:	d503      	bpl.n	8001170 <HAL_RCC_OscConfig+0x140>
 8001168:	68e3      	ldr	r3, [r4, #12]
 800116a:	2b01      	cmp	r3, #1
 800116c:	d000      	beq.n	8001170 <HAL_RCC_OscConfig+0x140>
 800116e:	e764      	b.n	800103a <HAL_RCC_OscConfig+0xa>
 8001170:	21f8      	movs	r1, #248	; 0xf8
 8001172:	682a      	ldr	r2, [r5, #0]
 8001174:	6923      	ldr	r3, [r4, #16]
 8001176:	438a      	bics	r2, r1
 8001178:	00db      	lsls	r3, r3, #3
 800117a:	4313      	orrs	r3, r2
 800117c:	602b      	str	r3, [r5, #0]
 800117e:	e765      	b.n	800104c <HAL_RCC_OscConfig+0x1c>
 8001180:	68e2      	ldr	r2, [r4, #12]
 8001182:	2301      	movs	r3, #1
 8001184:	2a00      	cmp	r2, #0
 8001186:	d00f      	beq.n	80011a8 <HAL_RCC_OscConfig+0x178>
 8001188:	682a      	ldr	r2, [r5, #0]
 800118a:	2602      	movs	r6, #2
 800118c:	4313      	orrs	r3, r2
 800118e:	602b      	str	r3, [r5, #0]
 8001190:	f7ff fb30 	bl	80007f4 <HAL_GetTick>
 8001194:	0007      	movs	r7, r0
 8001196:	682b      	ldr	r3, [r5, #0]
 8001198:	4233      	tst	r3, r6
 800119a:	d1e9      	bne.n	8001170 <HAL_RCC_OscConfig+0x140>
 800119c:	f7ff fb2a 	bl	80007f4 <HAL_GetTick>
 80011a0:	1bc0      	subs	r0, r0, r7
 80011a2:	2802      	cmp	r0, #2
 80011a4:	d9f7      	bls.n	8001196 <HAL_RCC_OscConfig+0x166>
 80011a6:	e7a6      	b.n	80010f6 <HAL_RCC_OscConfig+0xc6>
 80011a8:	682a      	ldr	r2, [r5, #0]
 80011aa:	2602      	movs	r6, #2
 80011ac:	439a      	bics	r2, r3
 80011ae:	602a      	str	r2, [r5, #0]
 80011b0:	f7ff fb20 	bl	80007f4 <HAL_GetTick>
 80011b4:	0007      	movs	r7, r0
 80011b6:	682b      	ldr	r3, [r5, #0]
 80011b8:	4233      	tst	r3, r6
 80011ba:	d100      	bne.n	80011be <HAL_RCC_OscConfig+0x18e>
 80011bc:	e746      	b.n	800104c <HAL_RCC_OscConfig+0x1c>
 80011be:	f7ff fb19 	bl	80007f4 <HAL_GetTick>
 80011c2:	1bc0      	subs	r0, r0, r7
 80011c4:	2802      	cmp	r0, #2
 80011c6:	d9f6      	bls.n	80011b6 <HAL_RCC_OscConfig+0x186>
 80011c8:	e795      	b.n	80010f6 <HAL_RCC_OscConfig+0xc6>
 80011ca:	69e2      	ldr	r2, [r4, #28]
 80011cc:	2301      	movs	r3, #1
 80011ce:	4d5a      	ldr	r5, [pc, #360]	; (8001338 <HAL_RCC_OscConfig+0x308>)
 80011d0:	2a00      	cmp	r2, #0
 80011d2:	d010      	beq.n	80011f6 <HAL_RCC_OscConfig+0x1c6>
 80011d4:	6a6a      	ldr	r2, [r5, #36]	; 0x24
 80011d6:	2602      	movs	r6, #2
 80011d8:	4313      	orrs	r3, r2
 80011da:	626b      	str	r3, [r5, #36]	; 0x24
 80011dc:	f7ff fb0a 	bl	80007f4 <HAL_GetTick>
 80011e0:	0007      	movs	r7, r0
 80011e2:	6a6b      	ldr	r3, [r5, #36]	; 0x24
 80011e4:	4233      	tst	r3, r6
 80011e6:	d000      	beq.n	80011ea <HAL_RCC_OscConfig+0x1ba>
 80011e8:	e734      	b.n	8001054 <HAL_RCC_OscConfig+0x24>
 80011ea:	f7ff fb03 	bl	80007f4 <HAL_GetTick>
 80011ee:	1bc0      	subs	r0, r0, r7
 80011f0:	2802      	cmp	r0, #2
 80011f2:	d9f6      	bls.n	80011e2 <HAL_RCC_OscConfig+0x1b2>
 80011f4:	e77f      	b.n	80010f6 <HAL_RCC_OscConfig+0xc6>
 80011f6:	6a6a      	ldr	r2, [r5, #36]	; 0x24
 80011f8:	2602      	movs	r6, #2
 80011fa:	439a      	bics	r2, r3
 80011fc:	626a      	str	r2, [r5, #36]	; 0x24
 80011fe:	f7ff faf9 	bl	80007f4 <HAL_GetTick>
 8001202:	0007      	movs	r7, r0
 8001204:	6a6b      	ldr	r3, [r5, #36]	; 0x24
 8001206:	4233      	tst	r3, r6
 8001208:	d100      	bne.n	800120c <HAL_RCC_OscConfig+0x1dc>
 800120a:	e723      	b.n	8001054 <HAL_RCC_OscConfig+0x24>
 800120c:	f7ff faf2 	bl	80007f4 <HAL_GetTick>
 8001210:	1bc0      	subs	r0, r0, r7
 8001212:	2802      	cmp	r0, #2
 8001214:	d9f6      	bls.n	8001204 <HAL_RCC_OscConfig+0x1d4>
 8001216:	e76e      	b.n	80010f6 <HAL_RCC_OscConfig+0xc6>
 8001218:	2280      	movs	r2, #128	; 0x80
 800121a:	2100      	movs	r1, #0
 800121c:	4d46      	ldr	r5, [pc, #280]	; (8001338 <HAL_RCC_OscConfig+0x308>)
 800121e:	0552      	lsls	r2, r2, #21
 8001220:	69eb      	ldr	r3, [r5, #28]
 8001222:	9100      	str	r1, [sp, #0]
 8001224:	4213      	tst	r3, r2
 8001226:	d108      	bne.n	800123a <HAL_RCC_OscConfig+0x20a>
 8001228:	69eb      	ldr	r3, [r5, #28]
 800122a:	4313      	orrs	r3, r2
 800122c:	61eb      	str	r3, [r5, #28]
 800122e:	69eb      	ldr	r3, [r5, #28]
 8001230:	4013      	ands	r3, r2
 8001232:	9303      	str	r3, [sp, #12]
 8001234:	9b03      	ldr	r3, [sp, #12]
 8001236:	2301      	movs	r3, #1
 8001238:	9300      	str	r3, [sp, #0]
 800123a:	2780      	movs	r7, #128	; 0x80
 800123c:	4e41      	ldr	r6, [pc, #260]	; (8001344 <HAL_RCC_OscConfig+0x314>)
 800123e:	007f      	lsls	r7, r7, #1
 8001240:	6833      	ldr	r3, [r6, #0]
 8001242:	423b      	tst	r3, r7
 8001244:	d006      	beq.n	8001254 <HAL_RCC_OscConfig+0x224>
 8001246:	68a3      	ldr	r3, [r4, #8]
 8001248:	2b01      	cmp	r3, #1
 800124a:	d113      	bne.n	8001274 <HAL_RCC_OscConfig+0x244>
 800124c:	6a2a      	ldr	r2, [r5, #32]
 800124e:	4313      	orrs	r3, r2
 8001250:	622b      	str	r3, [r5, #32]
 8001252:	e030      	b.n	80012b6 <HAL_RCC_OscConfig+0x286>
 8001254:	6833      	ldr	r3, [r6, #0]
 8001256:	433b      	orrs	r3, r7
 8001258:	6033      	str	r3, [r6, #0]
 800125a:	f7ff facb 	bl	80007f4 <HAL_GetTick>
 800125e:	9001      	str	r0, [sp, #4]
 8001260:	6833      	ldr	r3, [r6, #0]
 8001262:	423b      	tst	r3, r7
 8001264:	d1ef      	bne.n	8001246 <HAL_RCC_OscConfig+0x216>
 8001266:	f7ff fac5 	bl	80007f4 <HAL_GetTick>
 800126a:	9b01      	ldr	r3, [sp, #4]
 800126c:	1ac0      	subs	r0, r0, r3
 800126e:	2864      	cmp	r0, #100	; 0x64
 8001270:	d9f6      	bls.n	8001260 <HAL_RCC_OscConfig+0x230>
 8001272:	e740      	b.n	80010f6 <HAL_RCC_OscConfig+0xc6>
 8001274:	2201      	movs	r2, #1
 8001276:	2b00      	cmp	r3, #0
 8001278:	d114      	bne.n	80012a4 <HAL_RCC_OscConfig+0x274>
 800127a:	6a2b      	ldr	r3, [r5, #32]
 800127c:	2702      	movs	r7, #2
 800127e:	4393      	bics	r3, r2
 8001280:	622b      	str	r3, [r5, #32]
 8001282:	6a2b      	ldr	r3, [r5, #32]
 8001284:	3203      	adds	r2, #3
 8001286:	4393      	bics	r3, r2
 8001288:	622b      	str	r3, [r5, #32]
 800128a:	f7ff fab3 	bl	80007f4 <HAL_GetTick>
 800128e:	0006      	movs	r6, r0
 8001290:	6a2b      	ldr	r3, [r5, #32]
 8001292:	423b      	tst	r3, r7
 8001294:	d025      	beq.n	80012e2 <HAL_RCC_OscConfig+0x2b2>
 8001296:	f7ff faad 	bl	80007f4 <HAL_GetTick>
 800129a:	4b2b      	ldr	r3, [pc, #172]	; (8001348 <HAL_RCC_OscConfig+0x318>)
 800129c:	1b80      	subs	r0, r0, r6
 800129e:	4298      	cmp	r0, r3
 80012a0:	d9f6      	bls.n	8001290 <HAL_RCC_OscConfig+0x260>
 80012a2:	e728      	b.n	80010f6 <HAL_RCC_OscConfig+0xc6>
 80012a4:	2b05      	cmp	r3, #5
 80012a6:	d10b      	bne.n	80012c0 <HAL_RCC_OscConfig+0x290>
 80012a8:	6a29      	ldr	r1, [r5, #32]
 80012aa:	3b01      	subs	r3, #1
 80012ac:	430b      	orrs	r3, r1
 80012ae:	622b      	str	r3, [r5, #32]
 80012b0:	6a2b      	ldr	r3, [r5, #32]
 80012b2:	431a      	orrs	r2, r3
 80012b4:	622a      	str	r2, [r5, #32]
 80012b6:	f7ff fa9d 	bl	80007f4 <HAL_GetTick>
 80012ba:	2702      	movs	r7, #2
 80012bc:	0006      	movs	r6, r0
 80012be:	e00d      	b.n	80012dc <HAL_RCC_OscConfig+0x2ac>
 80012c0:	6a2b      	ldr	r3, [r5, #32]
 80012c2:	4393      	bics	r3, r2
 80012c4:	2204      	movs	r2, #4
 80012c6:	622b      	str	r3, [r5, #32]
 80012c8:	6a2b      	ldr	r3, [r5, #32]
 80012ca:	4393      	bics	r3, r2
 80012cc:	e7c0      	b.n	8001250 <HAL_RCC_OscConfig+0x220>
 80012ce:	f7ff fa91 	bl	80007f4 <HAL_GetTick>
 80012d2:	4b1d      	ldr	r3, [pc, #116]	; (8001348 <HAL_RCC_OscConfig+0x318>)
 80012d4:	1b80      	subs	r0, r0, r6
 80012d6:	4298      	cmp	r0, r3
 80012d8:	d900      	bls.n	80012dc <HAL_RCC_OscConfig+0x2ac>
 80012da:	e70c      	b.n	80010f6 <HAL_RCC_OscConfig+0xc6>
 80012dc:	6a2b      	ldr	r3, [r5, #32]
 80012de:	423b      	tst	r3, r7
 80012e0:	d0f5      	beq.n	80012ce <HAL_RCC_OscConfig+0x29e>
 80012e2:	9b00      	ldr	r3, [sp, #0]
 80012e4:	2b01      	cmp	r3, #1
 80012e6:	d000      	beq.n	80012ea <HAL_RCC_OscConfig+0x2ba>
 80012e8:	e6b8      	b.n	800105c <HAL_RCC_OscConfig+0x2c>
 80012ea:	69eb      	ldr	r3, [r5, #28]
 80012ec:	4a17      	ldr	r2, [pc, #92]	; (800134c <HAL_RCC_OscConfig+0x31c>)
 80012ee:	4013      	ands	r3, r2
 80012f0:	61eb      	str	r3, [r5, #28]
 80012f2:	e6b3      	b.n	800105c <HAL_RCC_OscConfig+0x2c>
 80012f4:	f7ff fa7e 	bl	80007f4 <HAL_GetTick>
 80012f8:	1bc0      	subs	r0, r0, r7
 80012fa:	2802      	cmp	r0, #2
 80012fc:	d800      	bhi.n	8001300 <HAL_RCC_OscConfig+0x2d0>
 80012fe:	e6c0      	b.n	8001082 <HAL_RCC_OscConfig+0x52>
 8001300:	e6f9      	b.n	80010f6 <HAL_RCC_OscConfig+0xc6>
 8001302:	3205      	adds	r2, #5
 8001304:	d103      	bne.n	800130e <HAL_RCC_OscConfig+0x2de>
 8001306:	6b6a      	ldr	r2, [r5, #52]	; 0x34
 8001308:	439a      	bics	r2, r3
 800130a:	636a      	str	r2, [r5, #52]	; 0x34
 800130c:	e6bd      	b.n	800108a <HAL_RCC_OscConfig+0x5a>
 800130e:	6b6a      	ldr	r2, [r5, #52]	; 0x34
 8001310:	2602      	movs	r6, #2
 8001312:	4313      	orrs	r3, r2
 8001314:	2201      	movs	r2, #1
 8001316:	636b      	str	r3, [r5, #52]	; 0x34
 8001318:	6b6b      	ldr	r3, [r5, #52]	; 0x34
 800131a:	4393      	bics	r3, r2
 800131c:	636b      	str	r3, [r5, #52]	; 0x34
 800131e:	f7ff fa69 	bl	80007f4 <HAL_GetTick>
 8001322:	0007      	movs	r7, r0
 8001324:	6b6b      	ldr	r3, [r5, #52]	; 0x34
 8001326:	4233      	tst	r3, r6
 8001328:	d100      	bne.n	800132c <HAL_RCC_OscConfig+0x2fc>
 800132a:	e6b5      	b.n	8001098 <HAL_RCC_OscConfig+0x68>
 800132c:	f7ff fa62 	bl	80007f4 <HAL_GetTick>
 8001330:	1bc0      	subs	r0, r0, r7
 8001332:	2802      	cmp	r0, #2
 8001334:	d9f6      	bls.n	8001324 <HAL_RCC_OscConfig+0x2f4>
 8001336:	e6de      	b.n	80010f6 <HAL_RCC_OscConfig+0xc6>
 8001338:	40021000 	.word	0x40021000
 800133c:	fffeffff 	.word	0xfffeffff
 8001340:	fffbffff 	.word	0xfffbffff
 8001344:	40007000 	.word	0x40007000
 8001348:	00001388 	.word	0x00001388
 800134c:	efffffff 	.word	0xefffffff
 8001350:	200c      	movs	r0, #12
 8001352:	4a35      	ldr	r2, [pc, #212]	; (8001428 <HAL_RCC_OscConfig+0x3f8>)
 8001354:	6851      	ldr	r1, [r2, #4]
 8001356:	0015      	movs	r5, r2
 8001358:	4001      	ands	r1, r0
 800135a:	2908      	cmp	r1, #8
 800135c:	d047      	beq.n	80013ee <HAL_RCC_OscConfig+0x3be>
 800135e:	4a33      	ldr	r2, [pc, #204]	; (800142c <HAL_RCC_OscConfig+0x3fc>)
 8001360:	2b02      	cmp	r3, #2
 8001362:	d132      	bne.n	80013ca <HAL_RCC_OscConfig+0x39a>
 8001364:	682b      	ldr	r3, [r5, #0]
 8001366:	2680      	movs	r6, #128	; 0x80
 8001368:	4013      	ands	r3, r2
 800136a:	602b      	str	r3, [r5, #0]
 800136c:	f7ff fa42 	bl	80007f4 <HAL_GetTick>
 8001370:	0007      	movs	r7, r0
 8001372:	04b6      	lsls	r6, r6, #18
 8001374:	682b      	ldr	r3, [r5, #0]
 8001376:	4233      	tst	r3, r6
 8001378:	d121      	bne.n	80013be <HAL_RCC_OscConfig+0x38e>
 800137a:	220f      	movs	r2, #15
 800137c:	6aeb      	ldr	r3, [r5, #44]	; 0x2c
 800137e:	4393      	bics	r3, r2
 8001380:	6ae2      	ldr	r2, [r4, #44]	; 0x2c
 8001382:	4313      	orrs	r3, r2
 8001384:	62eb      	str	r3, [r5, #44]	; 0x2c
 8001386:	6a61      	ldr	r1, [r4, #36]	; 0x24
 8001388:	6aa3      	ldr	r3, [r4, #40]	; 0x28
 800138a:	686a      	ldr	r2, [r5, #4]
 800138c:	430b      	orrs	r3, r1
 800138e:	4928      	ldr	r1, [pc, #160]	; (8001430 <HAL_RCC_OscConfig+0x400>)
 8001390:	2480      	movs	r4, #128	; 0x80
 8001392:	400a      	ands	r2, r1
 8001394:	4313      	orrs	r3, r2
 8001396:	606b      	str	r3, [r5, #4]
 8001398:	2380      	movs	r3, #128	; 0x80
 800139a:	682a      	ldr	r2, [r5, #0]
 800139c:	045b      	lsls	r3, r3, #17
 800139e:	4313      	orrs	r3, r2
 80013a0:	602b      	str	r3, [r5, #0]
 80013a2:	f7ff fa27 	bl	80007f4 <HAL_GetTick>
 80013a6:	0006      	movs	r6, r0
 80013a8:	04a4      	lsls	r4, r4, #18
 80013aa:	682b      	ldr	r3, [r5, #0]
 80013ac:	4223      	tst	r3, r4
 80013ae:	d000      	beq.n	80013b2 <HAL_RCC_OscConfig+0x382>
 80013b0:	e676      	b.n	80010a0 <HAL_RCC_OscConfig+0x70>
 80013b2:	f7ff fa1f 	bl	80007f4 <HAL_GetTick>
 80013b6:	1b80      	subs	r0, r0, r6
 80013b8:	2802      	cmp	r0, #2
 80013ba:	d9f6      	bls.n	80013aa <HAL_RCC_OscConfig+0x37a>
 80013bc:	e69b      	b.n	80010f6 <HAL_RCC_OscConfig+0xc6>
 80013be:	f7ff fa19 	bl	80007f4 <HAL_GetTick>
 80013c2:	1bc0      	subs	r0, r0, r7
 80013c4:	2802      	cmp	r0, #2
 80013c6:	d9d5      	bls.n	8001374 <HAL_RCC_OscConfig+0x344>
 80013c8:	e695      	b.n	80010f6 <HAL_RCC_OscConfig+0xc6>
 80013ca:	682b      	ldr	r3, [r5, #0]
 80013cc:	2480      	movs	r4, #128	; 0x80
 80013ce:	4013      	ands	r3, r2
 80013d0:	602b      	str	r3, [r5, #0]
 80013d2:	f7ff fa0f 	bl	80007f4 <HAL_GetTick>
 80013d6:	0006      	movs	r6, r0
 80013d8:	04a4      	lsls	r4, r4, #18
 80013da:	682b      	ldr	r3, [r5, #0]
 80013dc:	4223      	tst	r3, r4
 80013de:	d100      	bne.n	80013e2 <HAL_RCC_OscConfig+0x3b2>
 80013e0:	e65e      	b.n	80010a0 <HAL_RCC_OscConfig+0x70>
 80013e2:	f7ff fa07 	bl	80007f4 <HAL_GetTick>
 80013e6:	1b80      	subs	r0, r0, r6
 80013e8:	2802      	cmp	r0, #2
 80013ea:	d9f6      	bls.n	80013da <HAL_RCC_OscConfig+0x3aa>
 80013ec:	e683      	b.n	80010f6 <HAL_RCC_OscConfig+0xc6>
 80013ee:	0018      	movs	r0, r3
 80013f0:	2b01      	cmp	r3, #1
 80013f2:	d100      	bne.n	80013f6 <HAL_RCC_OscConfig+0x3c6>
 80013f4:	e622      	b.n	800103c <HAL_RCC_OscConfig+0xc>
 80013f6:	2180      	movs	r1, #128	; 0x80
 80013f8:	6853      	ldr	r3, [r2, #4]
 80013fa:	6a65      	ldr	r5, [r4, #36]	; 0x24
 80013fc:	0249      	lsls	r1, r1, #9
 80013fe:	6ad2      	ldr	r2, [r2, #44]	; 0x2c
 8001400:	4019      	ands	r1, r3
 8001402:	2001      	movs	r0, #1
 8001404:	42a9      	cmp	r1, r5
 8001406:	d000      	beq.n	800140a <HAL_RCC_OscConfig+0x3da>
 8001408:	e618      	b.n	800103c <HAL_RCC_OscConfig+0xc>
 800140a:	210f      	movs	r1, #15
 800140c:	400a      	ands	r2, r1
 800140e:	6ae1      	ldr	r1, [r4, #44]	; 0x2c
 8001410:	428a      	cmp	r2, r1
 8001412:	d000      	beq.n	8001416 <HAL_RCC_OscConfig+0x3e6>
 8001414:	e612      	b.n	800103c <HAL_RCC_OscConfig+0xc>
 8001416:	20f0      	movs	r0, #240	; 0xf0
 8001418:	0380      	lsls	r0, r0, #14
 800141a:	4003      	ands	r3, r0
 800141c:	6aa0      	ldr	r0, [r4, #40]	; 0x28
 800141e:	1a1b      	subs	r3, r3, r0
 8001420:	1e58      	subs	r0, r3, #1
 8001422:	4183      	sbcs	r3, r0
 8001424:	b2d8      	uxtb	r0, r3
 8001426:	e609      	b.n	800103c <HAL_RCC_OscConfig+0xc>
 8001428:	40021000 	.word	0x40021000
 800142c:	feffffff 	.word	0xfeffffff
 8001430:	ffc2ffff 	.word	0xffc2ffff

08001434 <HAL_RCC_GetSysClockFreq>:
 8001434:	b570      	push	{r4, r5, r6, lr}
 8001436:	4c14      	ldr	r4, [pc, #80]	; (8001488 <HAL_RCC_GetSysClockFreq+0x54>)
 8001438:	b088      	sub	sp, #32
 800143a:	2210      	movs	r2, #16
 800143c:	0021      	movs	r1, r4
 800143e:	4668      	mov	r0, sp
 8001440:	f000 fc8e 	bl	8001d60 <memcpy>
 8001444:	0021      	movs	r1, r4
 8001446:	ad04      	add	r5, sp, #16
 8001448:	2210      	movs	r2, #16
 800144a:	3110      	adds	r1, #16
 800144c:	0028      	movs	r0, r5
 800144e:	f000 fc87 	bl	8001d60 <memcpy>
 8001452:	220c      	movs	r2, #12
 8001454:	4e0d      	ldr	r6, [pc, #52]	; (800148c <HAL_RCC_GetSysClockFreq+0x58>)
 8001456:	6873      	ldr	r3, [r6, #4]
 8001458:	401a      	ands	r2, r3
 800145a:	2a08      	cmp	r2, #8
 800145c:	d111      	bne.n	8001482 <HAL_RCC_GetSysClockFreq+0x4e>
 800145e:	200f      	movs	r0, #15
 8001460:	466a      	mov	r2, sp
 8001462:	0c99      	lsrs	r1, r3, #18
 8001464:	4001      	ands	r1, r0
 8001466:	5c54      	ldrb	r4, [r2, r1]
 8001468:	6af2      	ldr	r2, [r6, #44]	; 0x2c
 800146a:	4002      	ands	r2, r0
 800146c:	5ca9      	ldrb	r1, [r5, r2]
 800146e:	03db      	lsls	r3, r3, #15
 8001470:	d505      	bpl.n	800147e <HAL_RCC_GetSysClockFreq+0x4a>
 8001472:	4807      	ldr	r0, [pc, #28]	; (8001490 <HAL_RCC_GetSysClockFreq+0x5c>)
 8001474:	f7fe fe52 	bl	800011c <__udivsi3>
 8001478:	4360      	muls	r0, r4
 800147a:	b008      	add	sp, #32
 800147c:	bd70      	pop	{r4, r5, r6, pc}
 800147e:	4805      	ldr	r0, [pc, #20]	; (8001494 <HAL_RCC_GetSysClockFreq+0x60>)
 8001480:	e7fa      	b.n	8001478 <HAL_RCC_GetSysClockFreq+0x44>
 8001482:	4803      	ldr	r0, [pc, #12]	; (8001490 <HAL_RCC_GetSysClockFreq+0x5c>)
 8001484:	e7f9      	b.n	800147a <HAL_RCC_GetSysClockFreq+0x46>
 8001486:	46c0      	nop			; (mov r8, r8)
 8001488:	08001d9c 	.word	0x08001d9c
 800148c:	40021000 	.word	0x40021000
 8001490:	007a1200 	.word	0x007a1200
 8001494:	003d0900 	.word	0x003d0900

08001498 <HAL_RCC_ClockConfig>:
 8001498:	b5f7      	push	{r0, r1, r2, r4, r5, r6, r7, lr}
 800149a:	0005      	movs	r5, r0
 800149c:	000f      	movs	r7, r1
 800149e:	2800      	cmp	r0, #0
 80014a0:	d101      	bne.n	80014a6 <HAL_RCC_ClockConfig+0xe>
 80014a2:	2001      	movs	r0, #1
 80014a4:	bdfe      	pop	{r1, r2, r3, r4, r5, r6, r7, pc}
 80014a6:	2201      	movs	r2, #1
 80014a8:	4c37      	ldr	r4, [pc, #220]	; (8001588 <HAL_RCC_ClockConfig+0xf0>)
 80014aa:	6823      	ldr	r3, [r4, #0]
 80014ac:	4013      	ands	r3, r2
 80014ae:	428b      	cmp	r3, r1
 80014b0:	d31c      	bcc.n	80014ec <HAL_RCC_ClockConfig+0x54>
 80014b2:	6829      	ldr	r1, [r5, #0]
 80014b4:	078b      	lsls	r3, r1, #30
 80014b6:	d422      	bmi.n	80014fe <HAL_RCC_ClockConfig+0x66>
 80014b8:	07cb      	lsls	r3, r1, #31
 80014ba:	d42f      	bmi.n	800151c <HAL_RCC_ClockConfig+0x84>
 80014bc:	2301      	movs	r3, #1
 80014be:	6822      	ldr	r2, [r4, #0]
 80014c0:	401a      	ands	r2, r3
 80014c2:	42ba      	cmp	r2, r7
 80014c4:	d851      	bhi.n	800156a <HAL_RCC_ClockConfig+0xd2>
 80014c6:	682b      	ldr	r3, [r5, #0]
 80014c8:	4c30      	ldr	r4, [pc, #192]	; (800158c <HAL_RCC_ClockConfig+0xf4>)
 80014ca:	075b      	lsls	r3, r3, #29
 80014cc:	d454      	bmi.n	8001578 <HAL_RCC_ClockConfig+0xe0>
 80014ce:	f7ff ffb1 	bl	8001434 <HAL_RCC_GetSysClockFreq>
 80014d2:	6863      	ldr	r3, [r4, #4]
 80014d4:	4a2e      	ldr	r2, [pc, #184]	; (8001590 <HAL_RCC_ClockConfig+0xf8>)
 80014d6:	061b      	lsls	r3, r3, #24
 80014d8:	0f1b      	lsrs	r3, r3, #28
 80014da:	5cd3      	ldrb	r3, [r2, r3]
 80014dc:	40d8      	lsrs	r0, r3
 80014de:	4b2d      	ldr	r3, [pc, #180]	; (8001594 <HAL_RCC_ClockConfig+0xfc>)
 80014e0:	6018      	str	r0, [r3, #0]
 80014e2:	2000      	movs	r0, #0
 80014e4:	f7ff f946 	bl	8000774 <HAL_InitTick>
 80014e8:	2000      	movs	r0, #0
 80014ea:	e7db      	b.n	80014a4 <HAL_RCC_ClockConfig+0xc>
 80014ec:	6823      	ldr	r3, [r4, #0]
 80014ee:	4393      	bics	r3, r2
 80014f0:	430b      	orrs	r3, r1
 80014f2:	6023      	str	r3, [r4, #0]
 80014f4:	6823      	ldr	r3, [r4, #0]
 80014f6:	4013      	ands	r3, r2
 80014f8:	428b      	cmp	r3, r1
 80014fa:	d1d2      	bne.n	80014a2 <HAL_RCC_ClockConfig+0xa>
 80014fc:	e7d9      	b.n	80014b2 <HAL_RCC_ClockConfig+0x1a>
 80014fe:	4a23      	ldr	r2, [pc, #140]	; (800158c <HAL_RCC_ClockConfig+0xf4>)
 8001500:	074b      	lsls	r3, r1, #29
 8001502:	d504      	bpl.n	800150e <HAL_RCC_ClockConfig+0x76>
 8001504:	23e0      	movs	r3, #224	; 0xe0
 8001506:	6850      	ldr	r0, [r2, #4]
 8001508:	00db      	lsls	r3, r3, #3
 800150a:	4303      	orrs	r3, r0
 800150c:	6053      	str	r3, [r2, #4]
 800150e:	20f0      	movs	r0, #240	; 0xf0
 8001510:	6853      	ldr	r3, [r2, #4]
 8001512:	4383      	bics	r3, r0
 8001514:	68a8      	ldr	r0, [r5, #8]
 8001516:	4303      	orrs	r3, r0
 8001518:	6053      	str	r3, [r2, #4]
 800151a:	e7cd      	b.n	80014b8 <HAL_RCC_ClockConfig+0x20>
 800151c:	4e1b      	ldr	r6, [pc, #108]	; (800158c <HAL_RCC_ClockConfig+0xf4>)
 800151e:	686a      	ldr	r2, [r5, #4]
 8001520:	6833      	ldr	r3, [r6, #0]
 8001522:	2a01      	cmp	r2, #1
 8001524:	d119      	bne.n	800155a <HAL_RCC_ClockConfig+0xc2>
 8001526:	039b      	lsls	r3, r3, #14
 8001528:	d5bb      	bpl.n	80014a2 <HAL_RCC_ClockConfig+0xa>
 800152a:	2103      	movs	r1, #3
 800152c:	6873      	ldr	r3, [r6, #4]
 800152e:	438b      	bics	r3, r1
 8001530:	4313      	orrs	r3, r2
 8001532:	6073      	str	r3, [r6, #4]
 8001534:	f7ff f95e 	bl	80007f4 <HAL_GetTick>
 8001538:	9001      	str	r0, [sp, #4]
 800153a:	230c      	movs	r3, #12
 800153c:	6872      	ldr	r2, [r6, #4]
 800153e:	401a      	ands	r2, r3
 8001540:	686b      	ldr	r3, [r5, #4]
 8001542:	009b      	lsls	r3, r3, #2
 8001544:	429a      	cmp	r2, r3
 8001546:	d0b9      	beq.n	80014bc <HAL_RCC_ClockConfig+0x24>
 8001548:	f7ff f954 	bl	80007f4 <HAL_GetTick>
 800154c:	9b01      	ldr	r3, [sp, #4]
 800154e:	1ac0      	subs	r0, r0, r3
 8001550:	4b11      	ldr	r3, [pc, #68]	; (8001598 <HAL_RCC_ClockConfig+0x100>)
 8001552:	4298      	cmp	r0, r3
 8001554:	d9f1      	bls.n	800153a <HAL_RCC_ClockConfig+0xa2>
 8001556:	2003      	movs	r0, #3
 8001558:	e7a4      	b.n	80014a4 <HAL_RCC_ClockConfig+0xc>
 800155a:	2a02      	cmp	r2, #2
 800155c:	d102      	bne.n	8001564 <HAL_RCC_ClockConfig+0xcc>
 800155e:	019b      	lsls	r3, r3, #6
 8001560:	d4e3      	bmi.n	800152a <HAL_RCC_ClockConfig+0x92>
 8001562:	e79e      	b.n	80014a2 <HAL_RCC_ClockConfig+0xa>
 8001564:	079b      	lsls	r3, r3, #30
 8001566:	d4e0      	bmi.n	800152a <HAL_RCC_ClockConfig+0x92>
 8001568:	e79b      	b.n	80014a2 <HAL_RCC_ClockConfig+0xa>
 800156a:	6822      	ldr	r2, [r4, #0]
 800156c:	439a      	bics	r2, r3
 800156e:	6022      	str	r2, [r4, #0]
 8001570:	6822      	ldr	r2, [r4, #0]
 8001572:	421a      	tst	r2, r3
 8001574:	d0a7      	beq.n	80014c6 <HAL_RCC_ClockConfig+0x2e>
 8001576:	e794      	b.n	80014a2 <HAL_RCC_ClockConfig+0xa>
 8001578:	6863      	ldr	r3, [r4, #4]
 800157a:	4a08      	ldr	r2, [pc, #32]	; (800159c <HAL_RCC_ClockConfig+0x104>)
 800157c:	4013      	ands	r3, r2
 800157e:	68ea      	ldr	r2, [r5, #12]
 8001580:	4313      	orrs	r3, r2
 8001582:	6063      	str	r3, [r4, #4]
 8001584:	e7a3      	b.n	80014ce <HAL_RCC_ClockConfig+0x36>
 8001586:	46c0      	nop			; (mov r8, r8)
 8001588:	40022000 	.word	0x40022000
 800158c:	40021000 	.word	0x40021000
 8001590:	08001dbc 	.word	0x08001dbc
 8001594:	20000004 	.word	0x20000004
 8001598:	00001388 	.word	0x00001388
 800159c:	fffff8ff 	.word	0xfffff8ff

080015a0 <TIM_OC1_SetConfig>:
 80015a0:	2201      	movs	r2, #1
 80015a2:	6a03      	ldr	r3, [r0, #32]
 80015a4:	b570      	push	{r4, r5, r6, lr}
 80015a6:	4393      	bics	r3, r2
 80015a8:	6203      	str	r3, [r0, #32]
 80015aa:	6a03      	ldr	r3, [r0, #32]
 80015ac:	6844      	ldr	r4, [r0, #4]
 80015ae:	6985      	ldr	r5, [r0, #24]
 80015b0:	3272      	adds	r2, #114	; 0x72
 80015b2:	4395      	bics	r5, r2
 80015b4:	680a      	ldr	r2, [r1, #0]
 80015b6:	4315      	orrs	r5, r2
 80015b8:	2202      	movs	r2, #2
 80015ba:	4393      	bics	r3, r2
 80015bc:	688a      	ldr	r2, [r1, #8]
 80015be:	4313      	orrs	r3, r2
 80015c0:	4a11      	ldr	r2, [pc, #68]	; (8001608 <TIM_OC1_SetConfig+0x68>)
 80015c2:	4290      	cmp	r0, r2
 80015c4:	d005      	beq.n	80015d2 <TIM_OC1_SetConfig+0x32>
 80015c6:	4e11      	ldr	r6, [pc, #68]	; (800160c <TIM_OC1_SetConfig+0x6c>)
 80015c8:	42b0      	cmp	r0, r6
 80015ca:	d002      	beq.n	80015d2 <TIM_OC1_SetConfig+0x32>
 80015cc:	4e10      	ldr	r6, [pc, #64]	; (8001610 <TIM_OC1_SetConfig+0x70>)
 80015ce:	42b0      	cmp	r0, r6
 80015d0:	d113      	bne.n	80015fa <TIM_OC1_SetConfig+0x5a>
 80015d2:	2608      	movs	r6, #8
 80015d4:	43b3      	bics	r3, r6
 80015d6:	68ce      	ldr	r6, [r1, #12]
 80015d8:	4333      	orrs	r3, r6
 80015da:	2604      	movs	r6, #4
 80015dc:	43b3      	bics	r3, r6
 80015de:	4290      	cmp	r0, r2
 80015e0:	d005      	beq.n	80015ee <TIM_OC1_SetConfig+0x4e>
 80015e2:	4a0a      	ldr	r2, [pc, #40]	; (800160c <TIM_OC1_SetConfig+0x6c>)
 80015e4:	4290      	cmp	r0, r2
 80015e6:	d002      	beq.n	80015ee <TIM_OC1_SetConfig+0x4e>
 80015e8:	4a09      	ldr	r2, [pc, #36]	; (8001610 <TIM_OC1_SetConfig+0x70>)
 80015ea:	4290      	cmp	r0, r2
 80015ec:	d105      	bne.n	80015fa <TIM_OC1_SetConfig+0x5a>
 80015ee:	4a09      	ldr	r2, [pc, #36]	; (8001614 <TIM_OC1_SetConfig+0x74>)
 80015f0:	698e      	ldr	r6, [r1, #24]
 80015f2:	4022      	ands	r2, r4
 80015f4:	694c      	ldr	r4, [r1, #20]
 80015f6:	4334      	orrs	r4, r6
 80015f8:	4314      	orrs	r4, r2
 80015fa:	684a      	ldr	r2, [r1, #4]
 80015fc:	6044      	str	r4, [r0, #4]
 80015fe:	6185      	str	r5, [r0, #24]
 8001600:	6342      	str	r2, [r0, #52]	; 0x34
 8001602:	6203      	str	r3, [r0, #32]
 8001604:	bd70      	pop	{r4, r5, r6, pc}
 8001606:	46c0      	nop			; (mov r8, r8)
 8001608:	40012c00 	.word	0x40012c00
 800160c:	40014400 	.word	0x40014400
 8001610:	40014800 	.word	0x40014800
 8001614:	fffffcff 	.word	0xfffffcff

08001618 <TIM_OC3_SetConfig>:
 8001618:	b570      	push	{r4, r5, r6, lr}
 800161a:	2573      	movs	r5, #115	; 0x73
 800161c:	6a03      	ldr	r3, [r0, #32]
 800161e:	4a16      	ldr	r2, [pc, #88]	; (8001678 <TIM_OC3_SetConfig+0x60>)
 8001620:	4013      	ands	r3, r2
 8001622:	6203      	str	r3, [r0, #32]
 8001624:	6a03      	ldr	r3, [r0, #32]
 8001626:	6842      	ldr	r2, [r0, #4]
 8001628:	69c4      	ldr	r4, [r0, #28]
 800162a:	43ac      	bics	r4, r5
 800162c:	680d      	ldr	r5, [r1, #0]
 800162e:	432c      	orrs	r4, r5
 8001630:	4d12      	ldr	r5, [pc, #72]	; (800167c <TIM_OC3_SetConfig+0x64>)
 8001632:	402b      	ands	r3, r5
 8001634:	688d      	ldr	r5, [r1, #8]
 8001636:	022d      	lsls	r5, r5, #8
 8001638:	432b      	orrs	r3, r5
 800163a:	4d11      	ldr	r5, [pc, #68]	; (8001680 <TIM_OC3_SetConfig+0x68>)
 800163c:	42a8      	cmp	r0, r5
 800163e:	d10e      	bne.n	800165e <TIM_OC3_SetConfig+0x46>
 8001640:	4d10      	ldr	r5, [pc, #64]	; (8001684 <TIM_OC3_SetConfig+0x6c>)
 8001642:	401d      	ands	r5, r3
 8001644:	68cb      	ldr	r3, [r1, #12]
 8001646:	021b      	lsls	r3, r3, #8
 8001648:	432b      	orrs	r3, r5
 800164a:	4d0f      	ldr	r5, [pc, #60]	; (8001688 <TIM_OC3_SetConfig+0x70>)
 800164c:	402b      	ands	r3, r5
 800164e:	4d0f      	ldr	r5, [pc, #60]	; (800168c <TIM_OC3_SetConfig+0x74>)
 8001650:	694e      	ldr	r6, [r1, #20]
 8001652:	4015      	ands	r5, r2
 8001654:	698a      	ldr	r2, [r1, #24]
 8001656:	4332      	orrs	r2, r6
 8001658:	0112      	lsls	r2, r2, #4
 800165a:	432a      	orrs	r2, r5
 800165c:	e005      	b.n	800166a <TIM_OC3_SetConfig+0x52>
 800165e:	4d0c      	ldr	r5, [pc, #48]	; (8001690 <TIM_OC3_SetConfig+0x78>)
 8001660:	42a8      	cmp	r0, r5
 8001662:	d0f4      	beq.n	800164e <TIM_OC3_SetConfig+0x36>
 8001664:	4d0b      	ldr	r5, [pc, #44]	; (8001694 <TIM_OC3_SetConfig+0x7c>)
 8001666:	42a8      	cmp	r0, r5
 8001668:	d0f1      	beq.n	800164e <TIM_OC3_SetConfig+0x36>
 800166a:	6042      	str	r2, [r0, #4]
 800166c:	684a      	ldr	r2, [r1, #4]
 800166e:	61c4      	str	r4, [r0, #28]
 8001670:	63c2      	str	r2, [r0, #60]	; 0x3c
 8001672:	6203      	str	r3, [r0, #32]
 8001674:	bd70      	pop	{r4, r5, r6, pc}
 8001676:	46c0      	nop			; (mov r8, r8)
 8001678:	fffffeff 	.word	0xfffffeff
 800167c:	fffffdff 	.word	0xfffffdff
 8001680:	40012c00 	.word	0x40012c00
 8001684:	fffff7ff 	.word	0xfffff7ff
 8001688:	fffffbff 	.word	0xfffffbff
 800168c:	ffffcfff 	.word	0xffffcfff
 8001690:	40014400 	.word	0x40014400
 8001694:	40014800 	.word	0x40014800

08001698 <TIM_OC4_SetConfig>:
 8001698:	6a03      	ldr	r3, [r0, #32]
 800169a:	4a12      	ldr	r2, [pc, #72]	; (80016e4 <TIM_OC4_SetConfig+0x4c>)
 800169c:	b530      	push	{r4, r5, lr}
 800169e:	4013      	ands	r3, r2
 80016a0:	6203      	str	r3, [r0, #32]
 80016a2:	6a02      	ldr	r2, [r0, #32]
 80016a4:	4c10      	ldr	r4, [pc, #64]	; (80016e8 <TIM_OC4_SetConfig+0x50>)
 80016a6:	6843      	ldr	r3, [r0, #4]
 80016a8:	69c5      	ldr	r5, [r0, #28]
 80016aa:	4025      	ands	r5, r4
 80016ac:	680c      	ldr	r4, [r1, #0]
 80016ae:	0224      	lsls	r4, r4, #8
 80016b0:	4325      	orrs	r5, r4
 80016b2:	4c0e      	ldr	r4, [pc, #56]	; (80016ec <TIM_OC4_SetConfig+0x54>)
 80016b4:	4022      	ands	r2, r4
 80016b6:	688c      	ldr	r4, [r1, #8]
 80016b8:	0324      	lsls	r4, r4, #12
 80016ba:	4322      	orrs	r2, r4
 80016bc:	4c0c      	ldr	r4, [pc, #48]	; (80016f0 <TIM_OC4_SetConfig+0x58>)
 80016be:	42a0      	cmp	r0, r4
 80016c0:	d005      	beq.n	80016ce <TIM_OC4_SetConfig+0x36>
 80016c2:	4c0c      	ldr	r4, [pc, #48]	; (80016f4 <TIM_OC4_SetConfig+0x5c>)
 80016c4:	42a0      	cmp	r0, r4
 80016c6:	d002      	beq.n	80016ce <TIM_OC4_SetConfig+0x36>
 80016c8:	4c0b      	ldr	r4, [pc, #44]	; (80016f8 <TIM_OC4_SetConfig+0x60>)
 80016ca:	42a0      	cmp	r0, r4
 80016cc:	d104      	bne.n	80016d8 <TIM_OC4_SetConfig+0x40>
 80016ce:	4c0b      	ldr	r4, [pc, #44]	; (80016fc <TIM_OC4_SetConfig+0x64>)
 80016d0:	4023      	ands	r3, r4
 80016d2:	694c      	ldr	r4, [r1, #20]
 80016d4:	01a4      	lsls	r4, r4, #6
 80016d6:	4323      	orrs	r3, r4
 80016d8:	6043      	str	r3, [r0, #4]
 80016da:	684b      	ldr	r3, [r1, #4]
 80016dc:	61c5      	str	r5, [r0, #28]
 80016de:	6403      	str	r3, [r0, #64]	; 0x40
 80016e0:	6202      	str	r2, [r0, #32]
 80016e2:	bd30      	pop	{r4, r5, pc}
 80016e4:	ffffefff 	.word	0xffffefff
 80016e8:	ffff8cff 	.word	0xffff8cff
 80016ec:	ffffdfff 	.word	0xffffdfff
 80016f0:	40012c00 	.word	0x40012c00
 80016f4:	40014400 	.word	0x40014400
 80016f8:	40014800 	.word	0x40014800
 80016fc:	ffffbfff 	.word	0xffffbfff

08001700 <HAL_TIM_Base_Start_IT>:
 8001700:	2201      	movs	r2, #1
 8001702:	6803      	ldr	r3, [r0, #0]
 8001704:	2007      	movs	r0, #7
 8001706:	68d9      	ldr	r1, [r3, #12]
 8001708:	4311      	orrs	r1, r2
 800170a:	60d9      	str	r1, [r3, #12]
 800170c:	6899      	ldr	r1, [r3, #8]
 800170e:	4001      	ands	r1, r0
 8001710:	2906      	cmp	r1, #6
 8001712:	d002      	beq.n	800171a <HAL_TIM_Base_Start_IT+0x1a>
 8001714:	6819      	ldr	r1, [r3, #0]
 8001716:	430a      	orrs	r2, r1
 8001718:	601a      	str	r2, [r3, #0]
 800171a:	2000      	movs	r0, #0
 800171c:	4770      	bx	lr

0800171e <HAL_TIM_PWM_MspInit>:
 800171e:	4770      	bx	lr

08001720 <HAL_TIM_OC_DelayElapsedCallback>:
 8001720:	4770      	bx	lr

08001722 <HAL_TIM_IC_CaptureCallback>:
 8001722:	4770      	bx	lr

08001724 <HAL_TIM_PWM_PulseFinishedCallback>:
 8001724:	4770      	bx	lr

08001726 <HAL_TIM_TriggerCallback>:
 8001726:	4770      	bx	lr

08001728 <HAL_TIM_IRQHandler>:
 8001728:	2202      	movs	r2, #2
 800172a:	6803      	ldr	r3, [r0, #0]
 800172c:	b510      	push	{r4, lr}
 800172e:	6919      	ldr	r1, [r3, #16]
 8001730:	0004      	movs	r4, r0
 8001732:	4211      	tst	r1, r2
 8001734:	d00e      	beq.n	8001754 <HAL_TIM_IRQHandler+0x2c>
 8001736:	68d9      	ldr	r1, [r3, #12]
 8001738:	4211      	tst	r1, r2
 800173a:	d00b      	beq.n	8001754 <HAL_TIM_IRQHandler+0x2c>
 800173c:	3a05      	subs	r2, #5
 800173e:	611a      	str	r2, [r3, #16]
 8001740:	699b      	ldr	r3, [r3, #24]
 8001742:	3204      	adds	r2, #4
 8001744:	7702      	strb	r2, [r0, #28]
 8001746:	079b      	lsls	r3, r3, #30
 8001748:	d100      	bne.n	800174c <HAL_TIM_IRQHandler+0x24>
 800174a:	e079      	b.n	8001840 <HAL_TIM_IRQHandler+0x118>
 800174c:	f7ff ffe9 	bl	8001722 <HAL_TIM_IC_CaptureCallback>
 8001750:	2300      	movs	r3, #0
 8001752:	7723      	strb	r3, [r4, #28]
 8001754:	2204      	movs	r2, #4
 8001756:	6823      	ldr	r3, [r4, #0]
 8001758:	6919      	ldr	r1, [r3, #16]
 800175a:	4211      	tst	r1, r2
 800175c:	d010      	beq.n	8001780 <HAL_TIM_IRQHandler+0x58>
 800175e:	68d9      	ldr	r1, [r3, #12]
 8001760:	4211      	tst	r1, r2
 8001762:	d00d      	beq.n	8001780 <HAL_TIM_IRQHandler+0x58>
 8001764:	3a09      	subs	r2, #9
 8001766:	611a      	str	r2, [r3, #16]
 8001768:	3207      	adds	r2, #7
 800176a:	7722      	strb	r2, [r4, #28]
 800176c:	699a      	ldr	r2, [r3, #24]
 800176e:	23c0      	movs	r3, #192	; 0xc0
 8001770:	009b      	lsls	r3, r3, #2
 8001772:	0020      	movs	r0, r4
 8001774:	421a      	tst	r2, r3
 8001776:	d069      	beq.n	800184c <HAL_TIM_IRQHandler+0x124>
 8001778:	f7ff ffd3 	bl	8001722 <HAL_TIM_IC_CaptureCallback>
 800177c:	2300      	movs	r3, #0
 800177e:	7723      	strb	r3, [r4, #28]
 8001780:	2208      	movs	r2, #8
 8001782:	6823      	ldr	r3, [r4, #0]
 8001784:	6919      	ldr	r1, [r3, #16]
 8001786:	4211      	tst	r1, r2
 8001788:	d00e      	beq.n	80017a8 <HAL_TIM_IRQHandler+0x80>
 800178a:	68d9      	ldr	r1, [r3, #12]
 800178c:	4211      	tst	r1, r2
 800178e:	d00b      	beq.n	80017a8 <HAL_TIM_IRQHandler+0x80>
 8001790:	3a11      	subs	r2, #17
 8001792:	611a      	str	r2, [r3, #16]
 8001794:	69db      	ldr	r3, [r3, #28]
 8001796:	320d      	adds	r2, #13
 8001798:	7722      	strb	r2, [r4, #28]
 800179a:	0020      	movs	r0, r4
 800179c:	079b      	lsls	r3, r3, #30
 800179e:	d05b      	beq.n	8001858 <HAL_TIM_IRQHandler+0x130>
 80017a0:	f7ff ffbf 	bl	8001722 <HAL_TIM_IC_CaptureCallback>
 80017a4:	2300      	movs	r3, #0
 80017a6:	7723      	strb	r3, [r4, #28]
 80017a8:	2210      	movs	r2, #16
 80017aa:	6823      	ldr	r3, [r4, #0]
 80017ac:	6919      	ldr	r1, [r3, #16]
 80017ae:	4211      	tst	r1, r2
 80017b0:	d010      	beq.n	80017d4 <HAL_TIM_IRQHandler+0xac>
 80017b2:	68d9      	ldr	r1, [r3, #12]
 80017b4:	4211      	tst	r1, r2
 80017b6:	d00d      	beq.n	80017d4 <HAL_TIM_IRQHandler+0xac>
 80017b8:	3a21      	subs	r2, #33	; 0x21
 80017ba:	611a      	str	r2, [r3, #16]
 80017bc:	3219      	adds	r2, #25
 80017be:	7722      	strb	r2, [r4, #28]
 80017c0:	69da      	ldr	r2, [r3, #28]
 80017c2:	23c0      	movs	r3, #192	; 0xc0
 80017c4:	009b      	lsls	r3, r3, #2
 80017c6:	0020      	movs	r0, r4
 80017c8:	421a      	tst	r2, r3
 80017ca:	d04b      	beq.n	8001864 <HAL_TIM_IRQHandler+0x13c>
 80017cc:	f7ff ffa9 	bl	8001722 <HAL_TIM_IC_CaptureCallback>
 80017d0:	2300      	movs	r3, #0
 80017d2:	7723      	strb	r3, [r4, #28]
 80017d4:	2201      	movs	r2, #1
 80017d6:	6823      	ldr	r3, [r4, #0]
 80017d8:	6919      	ldr	r1, [r3, #16]
 80017da:	4211      	tst	r1, r2
 80017dc:	d007      	beq.n	80017ee <HAL_TIM_IRQHandler+0xc6>
 80017de:	68d9      	ldr	r1, [r3, #12]
 80017e0:	4211      	tst	r1, r2
 80017e2:	d004      	beq.n	80017ee <HAL_TIM_IRQHandler+0xc6>
 80017e4:	3a03      	subs	r2, #3
 80017e6:	611a      	str	r2, [r3, #16]
 80017e8:	0020      	movs	r0, r4
 80017ea:	f7fe fe7b 	bl	80004e4 <HAL_TIM_PeriodElapsedCallback>
 80017ee:	2280      	movs	r2, #128	; 0x80
 80017f0:	6823      	ldr	r3, [r4, #0]
 80017f2:	6919      	ldr	r1, [r3, #16]
 80017f4:	4211      	tst	r1, r2
 80017f6:	d008      	beq.n	800180a <HAL_TIM_IRQHandler+0xe2>
 80017f8:	68d9      	ldr	r1, [r3, #12]
 80017fa:	4211      	tst	r1, r2
 80017fc:	d005      	beq.n	800180a <HAL_TIM_IRQHandler+0xe2>
 80017fe:	3a02      	subs	r2, #2
 8001800:	3aff      	subs	r2, #255	; 0xff
 8001802:	611a      	str	r2, [r3, #16]
 8001804:	0020      	movs	r0, r4
 8001806:	f000 fa86 	bl	8001d16 <HAL_TIMEx_BreakCallback>
 800180a:	2240      	movs	r2, #64	; 0x40
 800180c:	6823      	ldr	r3, [r4, #0]
 800180e:	6919      	ldr	r1, [r3, #16]
 8001810:	4211      	tst	r1, r2
 8001812:	d007      	beq.n	8001824 <HAL_TIM_IRQHandler+0xfc>
 8001814:	68d9      	ldr	r1, [r3, #12]
 8001816:	4211      	tst	r1, r2
 8001818:	d004      	beq.n	8001824 <HAL_TIM_IRQHandler+0xfc>
 800181a:	3a81      	subs	r2, #129	; 0x81
 800181c:	611a      	str	r2, [r3, #16]
 800181e:	0020      	movs	r0, r4
 8001820:	f7ff ff81 	bl	8001726 <HAL_TIM_TriggerCallback>
 8001824:	2220      	movs	r2, #32
 8001826:	6823      	ldr	r3, [r4, #0]
 8001828:	6919      	ldr	r1, [r3, #16]
 800182a:	4211      	tst	r1, r2
 800182c:	d007      	beq.n	800183e <HAL_TIM_IRQHandler+0x116>
 800182e:	68d9      	ldr	r1, [r3, #12]
 8001830:	4211      	tst	r1, r2
 8001832:	d004      	beq.n	800183e <HAL_TIM_IRQHandler+0x116>
 8001834:	3a41      	subs	r2, #65	; 0x41
 8001836:	611a      	str	r2, [r3, #16]
 8001838:	0020      	movs	r0, r4
 800183a:	f000 fa6b 	bl	8001d14 <HAL_TIMEx_CommutCallback>
 800183e:	bd10      	pop	{r4, pc}
 8001840:	f7ff ff6e 	bl	8001720 <HAL_TIM_OC_DelayElapsedCallback>
 8001844:	0020      	movs	r0, r4
 8001846:	f7ff ff6d 	bl	8001724 <HAL_TIM_PWM_PulseFinishedCallback>
 800184a:	e781      	b.n	8001750 <HAL_TIM_IRQHandler+0x28>
 800184c:	f7ff ff68 	bl	8001720 <HAL_TIM_OC_DelayElapsedCallback>
 8001850:	0020      	movs	r0, r4
 8001852:	f7ff ff67 	bl	8001724 <HAL_TIM_PWM_PulseFinishedCallback>
 8001856:	e791      	b.n	800177c <HAL_TIM_IRQHandler+0x54>
 8001858:	f7ff ff62 	bl	8001720 <HAL_TIM_OC_DelayElapsedCallback>
 800185c:	0020      	movs	r0, r4
 800185e:	f7ff ff61 	bl	8001724 <HAL_TIM_PWM_PulseFinishedCallback>
 8001862:	e79f      	b.n	80017a4 <HAL_TIM_IRQHandler+0x7c>
 8001864:	f7ff ff5c 	bl	8001720 <HAL_TIM_OC_DelayElapsedCallback>
 8001868:	0020      	movs	r0, r4
 800186a:	f7ff ff5b 	bl	8001724 <HAL_TIM_PWM_PulseFinishedCallback>
 800186e:	e7af      	b.n	80017d0 <HAL_TIM_IRQHandler+0xa8>

08001870 <TIM_Base_SetConfig>:
 8001870:	4a19      	ldr	r2, [pc, #100]	; (80018d8 <TIM_Base_SetConfig+0x68>)
 8001872:	b510      	push	{r4, lr}
 8001874:	6803      	ldr	r3, [r0, #0]
 8001876:	4290      	cmp	r0, r2
 8001878:	d002      	beq.n	8001880 <TIM_Base_SetConfig+0x10>
 800187a:	4c18      	ldr	r4, [pc, #96]	; (80018dc <TIM_Base_SetConfig+0x6c>)
 800187c:	42a0      	cmp	r0, r4
 800187e:	d108      	bne.n	8001892 <TIM_Base_SetConfig+0x22>
 8001880:	2470      	movs	r4, #112	; 0x70
 8001882:	43a3      	bics	r3, r4
 8001884:	684c      	ldr	r4, [r1, #4]
 8001886:	4323      	orrs	r3, r4
 8001888:	4290      	cmp	r0, r2
 800188a:	d00b      	beq.n	80018a4 <TIM_Base_SetConfig+0x34>
 800188c:	4c13      	ldr	r4, [pc, #76]	; (80018dc <TIM_Base_SetConfig+0x6c>)
 800188e:	42a0      	cmp	r0, r4
 8001890:	d008      	beq.n	80018a4 <TIM_Base_SetConfig+0x34>
 8001892:	4c13      	ldr	r4, [pc, #76]	; (80018e0 <TIM_Base_SetConfig+0x70>)
 8001894:	42a0      	cmp	r0, r4
 8001896:	d005      	beq.n	80018a4 <TIM_Base_SetConfig+0x34>
 8001898:	4c12      	ldr	r4, [pc, #72]	; (80018e4 <TIM_Base_SetConfig+0x74>)
 800189a:	42a0      	cmp	r0, r4
 800189c:	d002      	beq.n	80018a4 <TIM_Base_SetConfig+0x34>
 800189e:	4c12      	ldr	r4, [pc, #72]	; (80018e8 <TIM_Base_SetConfig+0x78>)
 80018a0:	42a0      	cmp	r0, r4
 80018a2:	d103      	bne.n	80018ac <TIM_Base_SetConfig+0x3c>
 80018a4:	4c11      	ldr	r4, [pc, #68]	; (80018ec <TIM_Base_SetConfig+0x7c>)
 80018a6:	4023      	ands	r3, r4
 80018a8:	68cc      	ldr	r4, [r1, #12]
 80018aa:	4323      	orrs	r3, r4
 80018ac:	2480      	movs	r4, #128	; 0x80
 80018ae:	43a3      	bics	r3, r4
 80018b0:	694c      	ldr	r4, [r1, #20]
 80018b2:	4323      	orrs	r3, r4
 80018b4:	6003      	str	r3, [r0, #0]
 80018b6:	688b      	ldr	r3, [r1, #8]
 80018b8:	62c3      	str	r3, [r0, #44]	; 0x2c
 80018ba:	680b      	ldr	r3, [r1, #0]
 80018bc:	6283      	str	r3, [r0, #40]	; 0x28
 80018be:	4290      	cmp	r0, r2
 80018c0:	d005      	beq.n	80018ce <TIM_Base_SetConfig+0x5e>
 80018c2:	4b08      	ldr	r3, [pc, #32]	; (80018e4 <TIM_Base_SetConfig+0x74>)
 80018c4:	4298      	cmp	r0, r3
 80018c6:	d002      	beq.n	80018ce <TIM_Base_SetConfig+0x5e>
 80018c8:	4b07      	ldr	r3, [pc, #28]	; (80018e8 <TIM_Base_SetConfig+0x78>)
 80018ca:	4298      	cmp	r0, r3
 80018cc:	d101      	bne.n	80018d2 <TIM_Base_SetConfig+0x62>
 80018ce:	690b      	ldr	r3, [r1, #16]
 80018d0:	6303      	str	r3, [r0, #48]	; 0x30
 80018d2:	2301      	movs	r3, #1
 80018d4:	6143      	str	r3, [r0, #20]
 80018d6:	bd10      	pop	{r4, pc}
 80018d8:	40012c00 	.word	0x40012c00
 80018dc:	40000400 	.word	0x40000400
 80018e0:	40002000 	.word	0x40002000
 80018e4:	40014400 	.word	0x40014400
 80018e8:	40014800 	.word	0x40014800
 80018ec:	fffffcff 	.word	0xfffffcff

080018f0 <HAL_TIM_Base_Init>:
 80018f0:	b570      	push	{r4, r5, r6, lr}
 80018f2:	0004      	movs	r4, r0
 80018f4:	2001      	movs	r0, #1
 80018f6:	2c00      	cmp	r4, #0
 80018f8:	d014      	beq.n	8001924 <HAL_TIM_Base_Init+0x34>
 80018fa:	0025      	movs	r5, r4
 80018fc:	353d      	adds	r5, #61	; 0x3d
 80018fe:	782b      	ldrb	r3, [r5, #0]
 8001900:	b2db      	uxtb	r3, r3
 8001902:	2b00      	cmp	r3, #0
 8001904:	d105      	bne.n	8001912 <HAL_TIM_Base_Init+0x22>
 8001906:	0022      	movs	r2, r4
 8001908:	323c      	adds	r2, #60	; 0x3c
 800190a:	7013      	strb	r3, [r2, #0]
 800190c:	0020      	movs	r0, r4
 800190e:	f7fe fe5b 	bl	80005c8 <HAL_TIM_Base_MspInit>
 8001912:	2302      	movs	r3, #2
 8001914:	6820      	ldr	r0, [r4, #0]
 8001916:	702b      	strb	r3, [r5, #0]
 8001918:	1d21      	adds	r1, r4, #4
 800191a:	f7ff ffa9 	bl	8001870 <TIM_Base_SetConfig>
 800191e:	2301      	movs	r3, #1
 8001920:	2000      	movs	r0, #0
 8001922:	702b      	strb	r3, [r5, #0]
 8001924:	bd70      	pop	{r4, r5, r6, pc}

08001926 <HAL_TIM_PWM_Init>:
 8001926:	b570      	push	{r4, r5, r6, lr}
 8001928:	0004      	movs	r4, r0
 800192a:	2001      	movs	r0, #1
 800192c:	2c00      	cmp	r4, #0
 800192e:	d014      	beq.n	800195a <HAL_TIM_PWM_Init+0x34>
 8001930:	0025      	movs	r5, r4
 8001932:	353d      	adds	r5, #61	; 0x3d
 8001934:	782b      	ldrb	r3, [r5, #0]
 8001936:	b2db      	uxtb	r3, r3
 8001938:	2b00      	cmp	r3, #0
 800193a:	d105      	bne.n	8001948 <HAL_TIM_PWM_Init+0x22>
 800193c:	0022      	movs	r2, r4
 800193e:	323c      	adds	r2, #60	; 0x3c
 8001940:	7013      	strb	r3, [r2, #0]
 8001942:	0020      	movs	r0, r4
 8001944:	f7ff feeb 	bl	800171e <HAL_TIM_PWM_MspInit>
 8001948:	2302      	movs	r3, #2
 800194a:	6820      	ldr	r0, [r4, #0]
 800194c:	702b      	strb	r3, [r5, #0]
 800194e:	1d21      	adds	r1, r4, #4
 8001950:	f7ff ff8e 	bl	8001870 <TIM_Base_SetConfig>
 8001954:	2301      	movs	r3, #1
 8001956:	2000      	movs	r0, #0
 8001958:	702b      	strb	r3, [r5, #0]
 800195a:	bd70      	pop	{r4, r5, r6, pc}

0800195c <TIM_OC2_SetConfig>:
 800195c:	2210      	movs	r2, #16
 800195e:	6a03      	ldr	r3, [r0, #32]
 8001960:	b570      	push	{r4, r5, r6, lr}
 8001962:	4393      	bics	r3, r2
 8001964:	6203      	str	r3, [r0, #32]
 8001966:	6a02      	ldr	r2, [r0, #32]
 8001968:	4d15      	ldr	r5, [pc, #84]	; (80019c0 <TIM_OC2_SetConfig+0x64>)
 800196a:	6843      	ldr	r3, [r0, #4]
 800196c:	6984      	ldr	r4, [r0, #24]
 800196e:	402c      	ands	r4, r5
 8001970:	680d      	ldr	r5, [r1, #0]
 8001972:	022d      	lsls	r5, r5, #8
 8001974:	432c      	orrs	r4, r5
 8001976:	2520      	movs	r5, #32
 8001978:	43aa      	bics	r2, r5
 800197a:	688d      	ldr	r5, [r1, #8]
 800197c:	012d      	lsls	r5, r5, #4
 800197e:	432a      	orrs	r2, r5
 8001980:	4d10      	ldr	r5, [pc, #64]	; (80019c4 <TIM_OC2_SetConfig+0x68>)
 8001982:	42a8      	cmp	r0, r5
 8001984:	d10f      	bne.n	80019a6 <TIM_OC2_SetConfig+0x4a>
 8001986:	2580      	movs	r5, #128	; 0x80
 8001988:	43aa      	bics	r2, r5
 800198a:	0015      	movs	r5, r2
 800198c:	68ca      	ldr	r2, [r1, #12]
 800198e:	0112      	lsls	r2, r2, #4
 8001990:	432a      	orrs	r2, r5
 8001992:	2540      	movs	r5, #64	; 0x40
 8001994:	43aa      	bics	r2, r5
 8001996:	4d0c      	ldr	r5, [pc, #48]	; (80019c8 <TIM_OC2_SetConfig+0x6c>)
 8001998:	694e      	ldr	r6, [r1, #20]
 800199a:	401d      	ands	r5, r3
 800199c:	698b      	ldr	r3, [r1, #24]
 800199e:	4333      	orrs	r3, r6
 80019a0:	009b      	lsls	r3, r3, #2
 80019a2:	432b      	orrs	r3, r5
 80019a4:	e005      	b.n	80019b2 <TIM_OC2_SetConfig+0x56>
 80019a6:	4d09      	ldr	r5, [pc, #36]	; (80019cc <TIM_OC2_SetConfig+0x70>)
 80019a8:	42a8      	cmp	r0, r5
 80019aa:	d0f4      	beq.n	8001996 <TIM_OC2_SetConfig+0x3a>
 80019ac:	4d08      	ldr	r5, [pc, #32]	; (80019d0 <TIM_OC2_SetConfig+0x74>)
 80019ae:	42a8      	cmp	r0, r5
 80019b0:	d0f1      	beq.n	8001996 <TIM_OC2_SetConfig+0x3a>
 80019b2:	6043      	str	r3, [r0, #4]
 80019b4:	684b      	ldr	r3, [r1, #4]
 80019b6:	6184      	str	r4, [r0, #24]
 80019b8:	6383      	str	r3, [r0, #56]	; 0x38
 80019ba:	6202      	str	r2, [r0, #32]
 80019bc:	bd70      	pop	{r4, r5, r6, pc}
 80019be:	46c0      	nop			; (mov r8, r8)
 80019c0:	ffff8cff 	.word	0xffff8cff
 80019c4:	40012c00 	.word	0x40012c00
 80019c8:	fffff3ff 	.word	0xfffff3ff
 80019cc:	40014400 	.word	0x40014400
 80019d0:	40014800 	.word	0x40014800

080019d4 <HAL_TIM_PWM_ConfigChannel>:
 80019d4:	b5f8      	push	{r3, r4, r5, r6, r7, lr}
 80019d6:	0006      	movs	r6, r0
 80019d8:	2302      	movs	r3, #2
 80019da:	363c      	adds	r6, #60	; 0x3c
 80019dc:	000d      	movs	r5, r1
 80019de:	7831      	ldrb	r1, [r6, #0]
 80019e0:	0004      	movs	r4, r0
 80019e2:	0018      	movs	r0, r3
 80019e4:	2901      	cmp	r1, #1
 80019e6:	d025      	beq.n	8001a34 <HAL_TIM_PWM_ConfigChannel+0x60>
 80019e8:	0027      	movs	r7, r4
 80019ea:	2101      	movs	r1, #1
 80019ec:	373d      	adds	r7, #61	; 0x3d
 80019ee:	7031      	strb	r1, [r6, #0]
 80019f0:	703b      	strb	r3, [r7, #0]
 80019f2:	2a0c      	cmp	r2, #12
 80019f4:	d81a      	bhi.n	8001a2c <HAL_TIM_PWM_ConfigChannel+0x58>
 80019f6:	0010      	movs	r0, r2
 80019f8:	f7fe fb86 	bl	8000108 <__gnu_thumb1_case_uqi>
 80019fc:	18181807 	.word	0x18181807
 8001a00:	1818181d 	.word	0x1818181d
 8001a04:	1818182f 	.word	0x1818182f
 8001a08:	41          	.byte	0x41
 8001a09:	00          	.byte	0x00
 8001a0a:	0029      	movs	r1, r5
 8001a0c:	6820      	ldr	r0, [r4, #0]
 8001a0e:	f7ff fdc7 	bl	80015a0 <TIM_OC1_SetConfig>
 8001a12:	2208      	movs	r2, #8
 8001a14:	6823      	ldr	r3, [r4, #0]
 8001a16:	6999      	ldr	r1, [r3, #24]
 8001a18:	430a      	orrs	r2, r1
 8001a1a:	2104      	movs	r1, #4
 8001a1c:	619a      	str	r2, [r3, #24]
 8001a1e:	699a      	ldr	r2, [r3, #24]
 8001a20:	438a      	bics	r2, r1
 8001a22:	619a      	str	r2, [r3, #24]
 8001a24:	699a      	ldr	r2, [r3, #24]
 8001a26:	6929      	ldr	r1, [r5, #16]
 8001a28:	430a      	orrs	r2, r1
 8001a2a:	619a      	str	r2, [r3, #24]
 8001a2c:	2301      	movs	r3, #1
 8001a2e:	2000      	movs	r0, #0
 8001a30:	703b      	strb	r3, [r7, #0]
 8001a32:	7030      	strb	r0, [r6, #0]
 8001a34:	bdf8      	pop	{r3, r4, r5, r6, r7, pc}
 8001a36:	0029      	movs	r1, r5
 8001a38:	6820      	ldr	r0, [r4, #0]
 8001a3a:	f7ff ff8f 	bl	800195c <TIM_OC2_SetConfig>
 8001a3e:	2280      	movs	r2, #128	; 0x80
 8001a40:	6823      	ldr	r3, [r4, #0]
 8001a42:	0112      	lsls	r2, r2, #4
 8001a44:	6999      	ldr	r1, [r3, #24]
 8001a46:	430a      	orrs	r2, r1
 8001a48:	619a      	str	r2, [r3, #24]
 8001a4a:	699a      	ldr	r2, [r3, #24]
 8001a4c:	4915      	ldr	r1, [pc, #84]	; (8001aa4 <HAL_TIM_PWM_ConfigChannel+0xd0>)
 8001a4e:	400a      	ands	r2, r1
 8001a50:	619a      	str	r2, [r3, #24]
 8001a52:	692a      	ldr	r2, [r5, #16]
 8001a54:	6999      	ldr	r1, [r3, #24]
 8001a56:	0212      	lsls	r2, r2, #8
 8001a58:	e7e6      	b.n	8001a28 <HAL_TIM_PWM_ConfigChannel+0x54>
 8001a5a:	0029      	movs	r1, r5
 8001a5c:	6820      	ldr	r0, [r4, #0]
 8001a5e:	f7ff fddb 	bl	8001618 <TIM_OC3_SetConfig>
 8001a62:	2208      	movs	r2, #8
 8001a64:	6823      	ldr	r3, [r4, #0]
 8001a66:	69d9      	ldr	r1, [r3, #28]
 8001a68:	430a      	orrs	r2, r1
 8001a6a:	2104      	movs	r1, #4
 8001a6c:	61da      	str	r2, [r3, #28]
 8001a6e:	69da      	ldr	r2, [r3, #28]
 8001a70:	438a      	bics	r2, r1
 8001a72:	61da      	str	r2, [r3, #28]
 8001a74:	69da      	ldr	r2, [r3, #28]
 8001a76:	6929      	ldr	r1, [r5, #16]
 8001a78:	430a      	orrs	r2, r1
 8001a7a:	61da      	str	r2, [r3, #28]
 8001a7c:	e7d6      	b.n	8001a2c <HAL_TIM_PWM_ConfigChannel+0x58>
 8001a7e:	0029      	movs	r1, r5
 8001a80:	6820      	ldr	r0, [r4, #0]
 8001a82:	f7ff fe09 	bl	8001698 <TIM_OC4_SetConfig>
 8001a86:	2280      	movs	r2, #128	; 0x80
 8001a88:	6823      	ldr	r3, [r4, #0]
 8001a8a:	0112      	lsls	r2, r2, #4
 8001a8c:	69d9      	ldr	r1, [r3, #28]
 8001a8e:	430a      	orrs	r2, r1
 8001a90:	61da      	str	r2, [r3, #28]
 8001a92:	69da      	ldr	r2, [r3, #28]
 8001a94:	4903      	ldr	r1, [pc, #12]	; (8001aa4 <HAL_TIM_PWM_ConfigChannel+0xd0>)
 8001a96:	400a      	ands	r2, r1
 8001a98:	61da      	str	r2, [r3, #28]
 8001a9a:	692a      	ldr	r2, [r5, #16]
 8001a9c:	69d9      	ldr	r1, [r3, #28]
 8001a9e:	0212      	lsls	r2, r2, #8
 8001aa0:	e7ea      	b.n	8001a78 <HAL_TIM_PWM_ConfigChannel+0xa4>
 8001aa2:	46c0      	nop			; (mov r8, r8)
 8001aa4:	fffffbff 	.word	0xfffffbff

08001aa8 <TIM_ETR_SetConfig>:
 8001aa8:	b530      	push	{r4, r5, lr}
 8001aaa:	6884      	ldr	r4, [r0, #8]
 8001aac:	4d03      	ldr	r5, [pc, #12]	; (8001abc <TIM_ETR_SetConfig+0x14>)
 8001aae:	430a      	orrs	r2, r1
 8001ab0:	021b      	lsls	r3, r3, #8
 8001ab2:	402c      	ands	r4, r5
 8001ab4:	4313      	orrs	r3, r2
 8001ab6:	4323      	orrs	r3, r4
 8001ab8:	6083      	str	r3, [r0, #8]
 8001aba:	bd30      	pop	{r4, r5, pc}
 8001abc:	ffff00ff 	.word	0xffff00ff

08001ac0 <HAL_TIM_ConfigClockSource>:
 8001ac0:	b5f8      	push	{r3, r4, r5, r6, r7, lr}
 8001ac2:	0005      	movs	r5, r0
 8001ac4:	2302      	movs	r3, #2
 8001ac6:	353c      	adds	r5, #60	; 0x3c
 8001ac8:	782a      	ldrb	r2, [r5, #0]
 8001aca:	0004      	movs	r4, r0
 8001acc:	0018      	movs	r0, r3
 8001ace:	2a01      	cmp	r2, #1
 8001ad0:	d016      	beq.n	8001b00 <HAL_TIM_ConfigClockSource+0x40>
 8001ad2:	0026      	movs	r6, r4
 8001ad4:	2701      	movs	r7, #1
 8001ad6:	6820      	ldr	r0, [r4, #0]
 8001ad8:	363d      	adds	r6, #61	; 0x3d
 8001ada:	702f      	strb	r7, [r5, #0]
 8001adc:	7033      	strb	r3, [r6, #0]
 8001ade:	6883      	ldr	r3, [r0, #8]
 8001ae0:	4a40      	ldr	r2, [pc, #256]	; (8001be4 <HAL_TIM_ConfigClockSource+0x124>)
 8001ae2:	4013      	ands	r3, r2
 8001ae4:	6083      	str	r3, [r0, #8]
 8001ae6:	680b      	ldr	r3, [r1, #0]
 8001ae8:	2b40      	cmp	r3, #64	; 0x40
 8001aea:	d065      	beq.n	8001bb8 <HAL_TIM_ConfigClockSource+0xf8>
 8001aec:	d814      	bhi.n	8001b18 <HAL_TIM_ConfigClockSource+0x58>
 8001aee:	2b10      	cmp	r3, #16
 8001af0:	d00b      	beq.n	8001b0a <HAL_TIM_ConfigClockSource+0x4a>
 8001af2:	d806      	bhi.n	8001b02 <HAL_TIM_ConfigClockSource+0x42>
 8001af4:	2b00      	cmp	r3, #0
 8001af6:	d008      	beq.n	8001b0a <HAL_TIM_ConfigClockSource+0x4a>
 8001af8:	2301      	movs	r3, #1
 8001afa:	2000      	movs	r0, #0
 8001afc:	7033      	strb	r3, [r6, #0]
 8001afe:	7028      	strb	r0, [r5, #0]
 8001b00:	bdf8      	pop	{r3, r4, r5, r6, r7, pc}
 8001b02:	2b20      	cmp	r3, #32
 8001b04:	d001      	beq.n	8001b0a <HAL_TIM_ConfigClockSource+0x4a>
 8001b06:	2b30      	cmp	r3, #48	; 0x30
 8001b08:	d1f6      	bne.n	8001af8 <HAL_TIM_ConfigClockSource+0x38>
 8001b0a:	2270      	movs	r2, #112	; 0x70
 8001b0c:	6881      	ldr	r1, [r0, #8]
 8001b0e:	4391      	bics	r1, r2
 8001b10:	3a69      	subs	r2, #105	; 0x69
 8001b12:	4313      	orrs	r3, r2
 8001b14:	430b      	orrs	r3, r1
 8001b16:	e01a      	b.n	8001b4e <HAL_TIM_ConfigClockSource+0x8e>
 8001b18:	2b60      	cmp	r3, #96	; 0x60
 8001b1a:	d035      	beq.n	8001b88 <HAL_TIM_ConfigClockSource+0xc8>
 8001b1c:	d819      	bhi.n	8001b52 <HAL_TIM_ConfigClockSource+0x92>
 8001b1e:	2b50      	cmp	r3, #80	; 0x50
 8001b20:	d1ea      	bne.n	8001af8 <HAL_TIM_ConfigClockSource+0x38>
 8001b22:	684a      	ldr	r2, [r1, #4]
 8001b24:	68cb      	ldr	r3, [r1, #12]
 8001b26:	6a01      	ldr	r1, [r0, #32]
 8001b28:	6a04      	ldr	r4, [r0, #32]
 8001b2a:	011b      	lsls	r3, r3, #4
 8001b2c:	43bc      	bics	r4, r7
 8001b2e:	27f0      	movs	r7, #240	; 0xf0
 8001b30:	6204      	str	r4, [r0, #32]
 8001b32:	6984      	ldr	r4, [r0, #24]
 8001b34:	43bc      	bics	r4, r7
 8001b36:	4323      	orrs	r3, r4
 8001b38:	240a      	movs	r4, #10
 8001b3a:	43a1      	bics	r1, r4
 8001b3c:	430a      	orrs	r2, r1
 8001b3e:	6183      	str	r3, [r0, #24]
 8001b40:	6202      	str	r2, [r0, #32]
 8001b42:	2270      	movs	r2, #112	; 0x70
 8001b44:	6883      	ldr	r3, [r0, #8]
 8001b46:	4393      	bics	r3, r2
 8001b48:	001a      	movs	r2, r3
 8001b4a:	2357      	movs	r3, #87	; 0x57
 8001b4c:	4313      	orrs	r3, r2
 8001b4e:	6083      	str	r3, [r0, #8]
 8001b50:	e7d2      	b.n	8001af8 <HAL_TIM_ConfigClockSource+0x38>
 8001b52:	2b70      	cmp	r3, #112	; 0x70
 8001b54:	d00d      	beq.n	8001b72 <HAL_TIM_ConfigClockSource+0xb2>
 8001b56:	2280      	movs	r2, #128	; 0x80
 8001b58:	0192      	lsls	r2, r2, #6
 8001b5a:	4293      	cmp	r3, r2
 8001b5c:	d1cc      	bne.n	8001af8 <HAL_TIM_ConfigClockSource+0x38>
 8001b5e:	68cb      	ldr	r3, [r1, #12]
 8001b60:	684a      	ldr	r2, [r1, #4]
 8001b62:	6889      	ldr	r1, [r1, #8]
 8001b64:	f7ff ffa0 	bl	8001aa8 <TIM_ETR_SetConfig>
 8001b68:	2380      	movs	r3, #128	; 0x80
 8001b6a:	6822      	ldr	r2, [r4, #0]
 8001b6c:	01db      	lsls	r3, r3, #7
 8001b6e:	6891      	ldr	r1, [r2, #8]
 8001b70:	e007      	b.n	8001b82 <HAL_TIM_ConfigClockSource+0xc2>
 8001b72:	68cb      	ldr	r3, [r1, #12]
 8001b74:	684a      	ldr	r2, [r1, #4]
 8001b76:	6889      	ldr	r1, [r1, #8]
 8001b78:	f7ff ff96 	bl	8001aa8 <TIM_ETR_SetConfig>
 8001b7c:	2377      	movs	r3, #119	; 0x77
 8001b7e:	6822      	ldr	r2, [r4, #0]
 8001b80:	6891      	ldr	r1, [r2, #8]
 8001b82:	430b      	orrs	r3, r1
 8001b84:	6093      	str	r3, [r2, #8]
 8001b86:	e7b7      	b.n	8001af8 <HAL_TIM_ConfigClockSource+0x38>
 8001b88:	2410      	movs	r4, #16
 8001b8a:	684b      	ldr	r3, [r1, #4]
 8001b8c:	68ca      	ldr	r2, [r1, #12]
 8001b8e:	6a01      	ldr	r1, [r0, #32]
 8001b90:	4f15      	ldr	r7, [pc, #84]	; (8001be8 <HAL_TIM_ConfigClockSource+0x128>)
 8001b92:	43a1      	bics	r1, r4
 8001b94:	6201      	str	r1, [r0, #32]
 8001b96:	6984      	ldr	r4, [r0, #24]
 8001b98:	0312      	lsls	r2, r2, #12
 8001b9a:	403c      	ands	r4, r7
 8001b9c:	4322      	orrs	r2, r4
 8001b9e:	24a0      	movs	r4, #160	; 0xa0
 8001ba0:	6a01      	ldr	r1, [r0, #32]
 8001ba2:	6182      	str	r2, [r0, #24]
 8001ba4:	2270      	movs	r2, #112	; 0x70
 8001ba6:	43a1      	bics	r1, r4
 8001ba8:	011b      	lsls	r3, r3, #4
 8001baa:	430b      	orrs	r3, r1
 8001bac:	6203      	str	r3, [r0, #32]
 8001bae:	6883      	ldr	r3, [r0, #8]
 8001bb0:	4393      	bics	r3, r2
 8001bb2:	001a      	movs	r2, r3
 8001bb4:	2367      	movs	r3, #103	; 0x67
 8001bb6:	e7c9      	b.n	8001b4c <HAL_TIM_ConfigClockSource+0x8c>
 8001bb8:	684a      	ldr	r2, [r1, #4]
 8001bba:	68cb      	ldr	r3, [r1, #12]
 8001bbc:	6a01      	ldr	r1, [r0, #32]
 8001bbe:	6a04      	ldr	r4, [r0, #32]
 8001bc0:	011b      	lsls	r3, r3, #4
 8001bc2:	43bc      	bics	r4, r7
 8001bc4:	27f0      	movs	r7, #240	; 0xf0
 8001bc6:	6204      	str	r4, [r0, #32]
 8001bc8:	6984      	ldr	r4, [r0, #24]
 8001bca:	43bc      	bics	r4, r7
 8001bcc:	4323      	orrs	r3, r4
 8001bce:	240a      	movs	r4, #10
 8001bd0:	43a1      	bics	r1, r4
 8001bd2:	430a      	orrs	r2, r1
 8001bd4:	6183      	str	r3, [r0, #24]
 8001bd6:	6202      	str	r2, [r0, #32]
 8001bd8:	2270      	movs	r2, #112	; 0x70
 8001bda:	6883      	ldr	r3, [r0, #8]
 8001bdc:	4393      	bics	r3, r2
 8001bde:	001a      	movs	r2, r3
 8001be0:	2347      	movs	r3, #71	; 0x47
 8001be2:	e7b3      	b.n	8001b4c <HAL_TIM_ConfigClockSource+0x8c>
 8001be4:	ffff0088 	.word	0xffff0088
 8001be8:	ffff0fff 	.word	0xffff0fff

08001bec <TIM_CCxChannelCmd>:
 8001bec:	231f      	movs	r3, #31
 8001bee:	b510      	push	{r4, lr}
 8001bf0:	2401      	movs	r4, #1
 8001bf2:	4019      	ands	r1, r3
 8001bf4:	408c      	lsls	r4, r1
 8001bf6:	408a      	lsls	r2, r1
 8001bf8:	6a03      	ldr	r3, [r0, #32]
 8001bfa:	43a3      	bics	r3, r4
 8001bfc:	6203      	str	r3, [r0, #32]
 8001bfe:	6a03      	ldr	r3, [r0, #32]
 8001c00:	431a      	orrs	r2, r3
 8001c02:	6202      	str	r2, [r0, #32]
 8001c04:	bd10      	pop	{r4, pc}
	...

08001c08 <HAL_TIM_OC_Start>:
 8001c08:	b510      	push	{r4, lr}
 8001c0a:	0004      	movs	r4, r0
 8001c0c:	2201      	movs	r2, #1
 8001c0e:	6800      	ldr	r0, [r0, #0]
 8001c10:	f7ff ffec 	bl	8001bec <TIM_CCxChannelCmd>
 8001c14:	6823      	ldr	r3, [r4, #0]
 8001c16:	4a0c      	ldr	r2, [pc, #48]	; (8001c48 <HAL_TIM_OC_Start+0x40>)
 8001c18:	4293      	cmp	r3, r2
 8001c1a:	d005      	beq.n	8001c28 <HAL_TIM_OC_Start+0x20>
 8001c1c:	4a0b      	ldr	r2, [pc, #44]	; (8001c4c <HAL_TIM_OC_Start+0x44>)
 8001c1e:	4293      	cmp	r3, r2
 8001c20:	d002      	beq.n	8001c28 <HAL_TIM_OC_Start+0x20>
 8001c22:	4a0b      	ldr	r2, [pc, #44]	; (8001c50 <HAL_TIM_OC_Start+0x48>)
 8001c24:	4293      	cmp	r3, r2
 8001c26:	d104      	bne.n	8001c32 <HAL_TIM_OC_Start+0x2a>
 8001c28:	2280      	movs	r2, #128	; 0x80
 8001c2a:	6c59      	ldr	r1, [r3, #68]	; 0x44
 8001c2c:	0212      	lsls	r2, r2, #8
 8001c2e:	430a      	orrs	r2, r1
 8001c30:	645a      	str	r2, [r3, #68]	; 0x44
 8001c32:	2107      	movs	r1, #7
 8001c34:	689a      	ldr	r2, [r3, #8]
 8001c36:	400a      	ands	r2, r1
 8001c38:	2a06      	cmp	r2, #6
 8001c3a:	d003      	beq.n	8001c44 <HAL_TIM_OC_Start+0x3c>
 8001c3c:	2201      	movs	r2, #1
 8001c3e:	6819      	ldr	r1, [r3, #0]
 8001c40:	430a      	orrs	r2, r1
 8001c42:	601a      	str	r2, [r3, #0]
 8001c44:	2000      	movs	r0, #0
 8001c46:	bd10      	pop	{r4, pc}
 8001c48:	40012c00 	.word	0x40012c00
 8001c4c:	40014400 	.word	0x40014400
 8001c50:	40014800 	.word	0x40014800

08001c54 <HAL_TIM_PWM_Start>:
 8001c54:	b510      	push	{r4, lr}
 8001c56:	f7ff ffd7 	bl	8001c08 <HAL_TIM_OC_Start>
 8001c5a:	bd10      	pop	{r4, pc}

08001c5c <HAL_TIMEx_MasterConfigSynchronization>:
 8001c5c:	b570      	push	{r4, r5, r6, lr}
 8001c5e:	0004      	movs	r4, r0
 8001c60:	2202      	movs	r2, #2
 8001c62:	343c      	adds	r4, #60	; 0x3c
 8001c64:	7825      	ldrb	r5, [r4, #0]
 8001c66:	0003      	movs	r3, r0
 8001c68:	0010      	movs	r0, r2
 8001c6a:	2d01      	cmp	r5, #1
 8001c6c:	d01b      	beq.n	8001ca6 <HAL_TIMEx_MasterConfigSynchronization+0x4a>
 8001c6e:	001d      	movs	r5, r3
 8001c70:	2670      	movs	r6, #112	; 0x70
 8001c72:	681b      	ldr	r3, [r3, #0]
 8001c74:	3801      	subs	r0, #1
 8001c76:	353d      	adds	r5, #61	; 0x3d
 8001c78:	7020      	strb	r0, [r4, #0]
 8001c7a:	702a      	strb	r2, [r5, #0]
 8001c7c:	6858      	ldr	r0, [r3, #4]
 8001c7e:	689a      	ldr	r2, [r3, #8]
 8001c80:	43b0      	bics	r0, r6
 8001c82:	680e      	ldr	r6, [r1, #0]
 8001c84:	4330      	orrs	r0, r6
 8001c86:	6058      	str	r0, [r3, #4]
 8001c88:	4807      	ldr	r0, [pc, #28]	; (8001ca8 <HAL_TIMEx_MasterConfigSynchronization+0x4c>)
 8001c8a:	4283      	cmp	r3, r0
 8001c8c:	d002      	beq.n	8001c94 <HAL_TIMEx_MasterConfigSynchronization+0x38>
 8001c8e:	4807      	ldr	r0, [pc, #28]	; (8001cac <HAL_TIMEx_MasterConfigSynchronization+0x50>)
 8001c90:	4283      	cmp	r3, r0
 8001c92:	d104      	bne.n	8001c9e <HAL_TIMEx_MasterConfigSynchronization+0x42>
 8001c94:	2080      	movs	r0, #128	; 0x80
 8001c96:	6849      	ldr	r1, [r1, #4]
 8001c98:	4382      	bics	r2, r0
 8001c9a:	430a      	orrs	r2, r1
 8001c9c:	609a      	str	r2, [r3, #8]
 8001c9e:	2301      	movs	r3, #1
 8001ca0:	2000      	movs	r0, #0
 8001ca2:	702b      	strb	r3, [r5, #0]
 8001ca4:	7020      	strb	r0, [r4, #0]
 8001ca6:	bd70      	pop	{r4, r5, r6, pc}
 8001ca8:	40012c00 	.word	0x40012c00
 8001cac:	40000400 	.word	0x40000400

08001cb0 <HAL_TIMEx_ConfigBreakDeadTime>:
 8001cb0:	b510      	push	{r4, lr}
 8001cb2:	0004      	movs	r4, r0
 8001cb4:	343c      	adds	r4, #60	; 0x3c
 8001cb6:	7823      	ldrb	r3, [r4, #0]
 8001cb8:	0002      	movs	r2, r0
 8001cba:	2002      	movs	r0, #2
 8001cbc:	2b01      	cmp	r3, #1
 8001cbe:	d01c      	beq.n	8001cfa <HAL_TIMEx_ConfigBreakDeadTime+0x4a>
 8001cc0:	68c8      	ldr	r0, [r1, #12]
 8001cc2:	4b0e      	ldr	r3, [pc, #56]	; (8001cfc <HAL_TIMEx_ConfigBreakDeadTime+0x4c>)
 8001cc4:	6812      	ldr	r2, [r2, #0]
 8001cc6:	4003      	ands	r3, r0
 8001cc8:	6888      	ldr	r0, [r1, #8]
 8001cca:	4303      	orrs	r3, r0
 8001ccc:	480c      	ldr	r0, [pc, #48]	; (8001d00 <HAL_TIMEx_ConfigBreakDeadTime+0x50>)
 8001cce:	4003      	ands	r3, r0
 8001cd0:	6848      	ldr	r0, [r1, #4]
 8001cd2:	4303      	orrs	r3, r0
 8001cd4:	480b      	ldr	r0, [pc, #44]	; (8001d04 <HAL_TIMEx_ConfigBreakDeadTime+0x54>)
 8001cd6:	4003      	ands	r3, r0
 8001cd8:	6808      	ldr	r0, [r1, #0]
 8001cda:	4303      	orrs	r3, r0
 8001cdc:	480a      	ldr	r0, [pc, #40]	; (8001d08 <HAL_TIMEx_ConfigBreakDeadTime+0x58>)
 8001cde:	4003      	ands	r3, r0
 8001ce0:	6908      	ldr	r0, [r1, #16]
 8001ce2:	4303      	orrs	r3, r0
 8001ce4:	4809      	ldr	r0, [pc, #36]	; (8001d0c <HAL_TIMEx_ConfigBreakDeadTime+0x5c>)
 8001ce6:	4003      	ands	r3, r0
 8001ce8:	6948      	ldr	r0, [r1, #20]
 8001cea:	69c9      	ldr	r1, [r1, #28]
 8001cec:	4303      	orrs	r3, r0
 8001cee:	4808      	ldr	r0, [pc, #32]	; (8001d10 <HAL_TIMEx_ConfigBreakDeadTime+0x60>)
 8001cf0:	4003      	ands	r3, r0
 8001cf2:	2000      	movs	r0, #0
 8001cf4:	430b      	orrs	r3, r1
 8001cf6:	6453      	str	r3, [r2, #68]	; 0x44
 8001cf8:	7020      	strb	r0, [r4, #0]
 8001cfa:	bd10      	pop	{r4, pc}
 8001cfc:	fffffcff 	.word	0xfffffcff
 8001d00:	fffffbff 	.word	0xfffffbff
 8001d04:	fffff7ff 	.word	0xfffff7ff
 8001d08:	ffffefff 	.word	0xffffefff
 8001d0c:	ffffdfff 	.word	0xffffdfff
 8001d10:	ffffbfff 	.word	0xffffbfff

08001d14 <HAL_TIMEx_CommutCallback>:
 8001d14:	4770      	bx	lr

08001d16 <HAL_TIMEx_BreakCallback>:
 8001d16:	4770      	bx	lr

08001d18 <__libc_init_array>:
 8001d18:	b570      	push	{r4, r5, r6, lr}
 8001d1a:	2600      	movs	r6, #0
 8001d1c:	4d0c      	ldr	r5, [pc, #48]	; (8001d50 <__libc_init_array+0x38>)
 8001d1e:	4c0d      	ldr	r4, [pc, #52]	; (8001d54 <__libc_init_array+0x3c>)
 8001d20:	1b64      	subs	r4, r4, r5
 8001d22:	10a4      	asrs	r4, r4, #2
 8001d24:	42a6      	cmp	r6, r4
 8001d26:	d109      	bne.n	8001d3c <__libc_init_array+0x24>
 8001d28:	2600      	movs	r6, #0
 8001d2a:	f000 f82b 	bl	8001d84 <_init>
 8001d2e:	4d0a      	ldr	r5, [pc, #40]	; (8001d58 <__libc_init_array+0x40>)
 8001d30:	4c0a      	ldr	r4, [pc, #40]	; (8001d5c <__libc_init_array+0x44>)
 8001d32:	1b64      	subs	r4, r4, r5
 8001d34:	10a4      	asrs	r4, r4, #2
 8001d36:	42a6      	cmp	r6, r4
 8001d38:	d105      	bne.n	8001d46 <__libc_init_array+0x2e>
 8001d3a:	bd70      	pop	{r4, r5, r6, pc}
 8001d3c:	00b3      	lsls	r3, r6, #2
 8001d3e:	58eb      	ldr	r3, [r5, r3]
 8001d40:	4798      	blx	r3
 8001d42:	3601      	adds	r6, #1
 8001d44:	e7ee      	b.n	8001d24 <__libc_init_array+0xc>
 8001d46:	00b3      	lsls	r3, r6, #2
 8001d48:	58eb      	ldr	r3, [r5, r3]
 8001d4a:	4798      	blx	r3
 8001d4c:	3601      	adds	r6, #1
 8001d4e:	e7f2      	b.n	8001d36 <__libc_init_array+0x1e>
 8001d50:	08001dcc 	.word	0x08001dcc
 8001d54:	08001dcc 	.word	0x08001dcc
 8001d58:	08001dcc 	.word	0x08001dcc
 8001d5c:	08001dd0 	.word	0x08001dd0

08001d60 <memcpy>:
 8001d60:	2300      	movs	r3, #0
 8001d62:	b510      	push	{r4, lr}
 8001d64:	429a      	cmp	r2, r3
 8001d66:	d100      	bne.n	8001d6a <memcpy+0xa>
 8001d68:	bd10      	pop	{r4, pc}
 8001d6a:	5ccc      	ldrb	r4, [r1, r3]
 8001d6c:	54c4      	strb	r4, [r0, r3]
 8001d6e:	3301      	adds	r3, #1
 8001d70:	e7f8      	b.n	8001d64 <memcpy+0x4>

08001d72 <memset>:
 8001d72:	0003      	movs	r3, r0
 8001d74:	1812      	adds	r2, r2, r0
 8001d76:	4293      	cmp	r3, r2
 8001d78:	d100      	bne.n	8001d7c <memset+0xa>
 8001d7a:	4770      	bx	lr
 8001d7c:	7019      	strb	r1, [r3, #0]
 8001d7e:	3301      	adds	r3, #1
 8001d80:	e7f9      	b.n	8001d76 <memset+0x4>
	...

08001d84 <_init>:
 8001d84:	b5f8      	push	{r3, r4, r5, r6, r7, lr}
 8001d86:	46c0      	nop			; (mov r8, r8)
 8001d88:	bcf8      	pop	{r3, r4, r5, r6, r7}
 8001d8a:	bc08      	pop	{r3}
 8001d8c:	469e      	mov	lr, r3
 8001d8e:	4770      	bx	lr

08001d90 <_fini>:
 8001d90:	b5f8      	push	{r3, r4, r5, r6, r7, lr}
 8001d92:	46c0      	nop			; (mov r8, r8)
 8001d94:	bcf8      	pop	{r3, r4, r5, r6, r7}
 8001d96:	bc08      	pop	{r3}
 8001d98:	469e      	mov	lr, r3
 8001d9a:	4770      	bx	lr
